ccopy_reg
_reconstructor
p1
(cpoemCorpusTrainer.CorpusLoader
CorpusLoader
p2
c__builtin__
object
p3
NtRp4
(dp5
S'corpus_phonemes'
p6
cnumpy.core.multiarray
_reconstruct
p7
(cnumpy
ndarray
p8
(I0
tS'b'
tRp9
(I1
(L285L
tcnumpy
dtype
p10
(S'O8'
I0
I1
tRp11
(I3
S'|'
NNNI-1
I-1
I63
tbI00
(lp12
(lp13
(lp14
S'S'
aS'T'
aS'EY1'
p15
aS'T'
aaa(lp16
(lp17
S'HH'
p18
aS'AE1'
p19
aS'N'
aS'D'
aS'Z'
aa(lp20
S'HH'
p21
aS'AE1'
p22
aS'N'
aS'Z'
aaa(lp23
(lp24
S'L'
aS'AH1'
p25
aS'V'
aaa(lp26
(lp27
S'S'
aS'K'
aS'IH1'
p28
aS'N'
aaa(lp29
(lp30
S'R'
aS'IY1'
p31
aS'L'
aaa(lp32
(lp33
S'TH'
p34
aS'IH1'
p35
aS'NG'
p36
aaa(lp37
(lp38
S'L'
aS'AY1'
p39
aS'T'
aaa(lp40
(lp41
S'L'
aS'AY1'
p42
aS'F'
aaa(lp43
(lp44
S'S'
aS'AY1'
p45
aS'T'
aaa(lp46
(lp47
S'HH'
p48
aS'OW1'
p49
aS'M'
aaa(lp50
(lp51
S'AH0'
p52
aS'N'
aS'N'
aS'OW1'
p53
aS'N'
aaa(lp54
(lp55
S'K'
aS'L'
aS'UW1'
p56
aaa(lp57
(lp58
S'IH0'
p59
aS'N'
aS'T'
aS'UW1'
p60
aa(lp61
S'IH1'
p62
aS'N'
aS'T'
aS'UW0'
p63
aa(lp64
S'IH0'
p65
aS'N'
aS'T'
aS'AH0'
p66
aaa(lp67
(lp68
S'F'
aS'L'
aS'ER0'
p69
aS'T'
aS'EY1'
p70
aS'SH'
p71
aS'AH0'
p72
aS'N'
aaa(lp73
(lp74
S'IH0'
p75
aS'N'
aS'F'
aS'AE2'
p76
aS'CH'
p77
aS'UW0'
p78
aS'EY1'
p79
aS'SH'
p80
aS'AH0'
p81
aS'N'
aaa(lp82
(lp83
S'G'
aS'R'
aS'UW1'
p84
aaa(lp85
(lp86
S'IH0'
p87
aS'M'
aS'AE2'
p88
aS'JH'
p89
aS'AH0'
p90
aS'N'
aS'EY1'
p91
aS'SH'
p92
aS'AH0'
p93
aS'N'
aaa(lp94
(lp95
S'B'
aS'AY1'
p96
aaa(lp97
(lp98
S'F'
aS'L'
aS'AY1'
p99
aaa(lp100
(lp101
S'AH1'
p102
aS'S'
aa(lp103
S'Y'
aS'UW1'
p104
aS'EH1'
p105
aS'S'
aaa(lp106
(lp107
S'T'
aS'AY1'
p108
aS'M'
aaa(lp109
(lp110
S'L'
aS'AO0'
p111
aS'N'
aS'JH'
p112
aS'EH1'
p113
aS'V'
aS'AH0'
p114
aS'T'
aS'IY0'
p115
aaa(lp116
(lp117
S'M'
aS'AY1'
p118
aS'N'
aS'D'
aaa(lp119
(lp120
S'AH2'
p121
aS'N'
aS'K'
aS'AH0'
p122
aS'N'
aS'T'
aS'EH1'
p123
aS'S'
aS'T'
aS'IH0'
p124
aS'D'
aaa(lp125
(lp126
S'S'
aS'ER0'
p127
aS'IY1'
p128
aS'N'
aaa(lp129
(lp130
S'B'
aS'AH1'
p131
aS'T'
aS'ER0'
p132
aS'F'
aS'L'
aS'AY2'
p133
aaa(lp134
(lp135
S'D'
aS'R'
aS'IY1'
p136
aS'M'
aaa(lp137
(lp138
S'S'
aS'T'
aS'R'
aS'AY1'
p139
aS'P'
aS'S'
aaa(lp140
(lp141
S'P'
aS'R'
aS'AY1'
p142
aS'D'
aaa(lp143
(lp144
S'B'
aS'AE1'
p145
aS'N'
aS'ER0'
p146
aaa(lp147
(lp148
S'S'
aS'P'
aS'AY1'
p149
aS'N'
aaa(lp150
(lp151
S'F'
aS'R'
aS'IY1'
p152
aS'D'
aS'AH0'
p153
aS'M'
aaa(lp154
(lp155
S'EH0'
p156
aS'N'
aS'JH'
p157
aS'OY1'
p158
aa(lp159
S'IH0'
p160
aS'N'
aS'JH'
p161
aS'OY1'
p162
aaa(lp163
(lp164
S'IH0'
p165
aS'K'
aS'S'
aS'P'
aS'EH1'
p166
aS'N'
aS'S'
aaa(lp167
(lp168
S'B'
aS'OY1'
p169
aaa(lp170
(lp171
S'S'
aS'ER1'
p172
aS'V'
aaa(lp173
(lp174
S'S'
aS'ER0'
p175
aS'V'
aS'AY1'
p176
aS'V'
aaa(lp177
(lp178
S'D'
aS'IH0'
p179
aS'Z'
aS'ER1'
p180
aS'V'
aaa(lp181
(lp182
S'M'
aS'EY1'
p183
aaa(lp184
(lp185
S'P'
aS'R'
aS'EY1'
p186
aaa(lp187
(lp188
S'HH'
p189
aS'IH1'
p190
aS'R'
aS'OW0'
p191
aS'Z'
aa(lp192
S'HH'
p193
aS'IY1'
p194
aS'R'
aS'OW0'
p195
aS'Z'
aaa(lp196
(lp197
S'AH0'
p198
aa(lp199
S'EY1'
p200
aaa(lp201
(lp202
S'HH'
p203
aS'EY1'
p204
aS'T'
aaa(lp205
(lp206
S'W'
aS'AO1'
p207
aS'R'
aaa(lp208
(lp209
S'R'
aS'IH0'
p210
aS'L'
aS'EH1'
p211
aS'N'
aS'T'
aS'L'
aS'AH0'
p212
aS'S'
aS'L'
aS'IY0'
p213
aaa(lp214
(lp215
S'B'
aS'AH1'
p216
aS'B'
aS'AH0'
p217
aS'L'
aS'IH0'
p218
aS'NG'
p219
aa(lp220
S'B'
aS'AH1'
p221
aS'B'
aS'L'
aS'IH0'
p222
aS'NG'
p223
aaa(lp224
(lp225
S'R'
aS'IY0'
p226
aS'L'
aS'IY1'
p227
aS'S'
aaa(lp228
(lp229
S'S'
aS'K'
aS'R'
aS'IY1'
p230
aS'M'
aaa(lp231
(lp232
S'R'
aS'IY0'
p233
aS'T'
aS'R'
aS'IY1'
p234
aS'T'
aS'S'
aaa(lp235
(lp236
S'W'
aS'IH0'
p237
aS'DH'
p238
aS'IH1'
p239
aS'N'
aa(lp240
S'W'
aS'IH0'
p241
aS'TH'
p242
aS'IH1'
p243
aS'N'
aaa(lp244
(lp245
S'D'
aS'AH1'
p246
aS'N'
aS'JH'
p247
aS'AH0'
p248
aS'N'
aaa(lp249
(lp250
S'B'
aS'L'
aS'IY1'
p251
aS'D'
aS'IH0'
p252
aS'NG'
p253
aaa(lp254
(lp255
S'HH'
p256
aS'AE1'
p257
aS'NG'
p258
aaa(lp259
(lp260
S'B'
aS'L'
aS'ER1'
p261
aS'D'
aaa(lp262
(lp263
S'CH'
p264
aS'OY1'
p265
aS'S'
aaa(lp266
(lp267
S'D'
aS'IH0'
p268
aS'F'
aS'IY1'
p269
aS'T'
aaa(lp270
(lp271
S'F'
aS'UH1'
p272
aS'T'
aS'S'
aS'T'
aS'EH2'
p273
aS'P'
aS'S'
aaaNa(lp274
(lp275
S'S'
aS'AH0'
p276
aS'K'
aS'AH1'
p277
aS'M'
aS'Z'
aaa(lp278
(lp279
S'HH'
p280
aS'EH1'
p281
aS'L'
aS'P'
aS'L'
aS'AH0'
p282
aS'S'
aS'N'
aS'AH0'
p283
aS'S'
aaa(lp284
(lp285
S'AE0'
p286
aS'N'
aS'T'
aS'IH2'
p287
aS'S'
aS'AH0'
p288
aS'P'
aS'EY1'
p289
aS'SH'
p290
aS'AH0'
p291
aS'N'
aa(lp292
S'AE0'
p293
aS'N'
aS'T'
aS'IH0'
p294
aS'S'
aS'AH0'
p295
aS'P'
aS'EY1'
p296
aS'SH'
p297
aS'AH0'
p298
aS'N'
aaa(lp299
(lp300
S'S'
aS'AH1'
p301
aS'N'
aS'S'
aS'EH2'
p302
aS'T'
aaa(lp303
(lp304
S'S'
aS'EH1'
p305
aS'D'
aaa(lp306
(lp307
S'R'
aS'EY1'
p308
aS'N'
aS'B'
aS'OW2'
p309
aaa(lp310
(lp311
S'R'
aS'AA1'
p312
aS'K'
aaa(lp313
(lp314
S'HH'
p315
aS'EH1'
p316
aS'D'
aaa(lp317
(lp318
S'F'
aS'AW1'
p319
aS'L'
aaa(lp320
(lp321
S'W'
aS'UH1'
p322
aS'M'
aS'AH0'
p323
aS'N'
aaa(lp324
(lp325
S'N'
aS'AW1'
p326
aaa(lp327
(lp328
S'B'
aS'IH0'
p329
aS'G'
aS'AE1'
p330
aS'N'
aa(lp331
S'B'
aS'IY0'
p332
aS'G'
aS'AE1'
p333
aS'N'
aaa(lp334
(lp335
S'ER1'
p336
aS'TH'
p337
aaa(lp338
(lp339
S'EH1'
p340
aS'N'
aS'D'
aaa(lp341
(lp342
S'F'
aS'IH1'
p343
aS'R'
aaa(lp344
(lp345
S'HH'
p346
aS'IY1'
p347
aS'R'
aaa(lp348
(lp349
S'K'
aS'R'
aS'IY0'
p350
aS'EY1'
p351
aS'T'
aS'ER0'
p352
aaa(lp353
(lp354
S'S'
aS'L'
aS'EY1'
p355
aS'ER0'
p356
aaa(lp357
(lp358
S'P'
aS'AW1'
p359
aS'ER0'
p360
aaa(lp361
(lp362
S'T'
aS'AW1'
p363
aS'ER0'
p364
aaa(lp365
(lp366
S'W'
aS'IY1'
p367
aS'K'
aaa(lp368
(lp369
S'R'
aS'IY1'
p370
aS'K'
aaa(lp371
(lp372
S'K'
aS'L'
aS'OW1'
p373
aS'S'
aa(lp374
S'K'
aS'L'
aS'OW1'
p375
aS'Z'
aaa(lp376
(lp377
S'N'
aS'OW1'
p378
aS'Z'
aaa(lp379
(lp380
S'K'
aS'AH1'
p381
aS'M'
aaa(lp382
(lp383
S'W'
aS'AH1'
p384
aS'N'
aa(lp385
S'HH'
p386
aS'W'
aS'AH1'
p387
aS'N'
aaa(lp388
(lp389
S'T'
aS'AY1'
p390
aS'M'
aS'Z'
aaa(lp391
(lp392
S'S'
aS'AH1'
p393
aS'N'
aaa(lp394
(lp395
S'G'
aS'EY1'
p396
aS'N'
aS'D'
aaa(lp397
(lp398
S'D'
aS'AH1'
p399
aS'N'
aaa(lp400
(lp401
S'L'
aS'AE1'
p402
aS'F'
aS'T'
aS'ER0'
p403
aaa(lp404
(lp405
S'S'
aS'AY1'
p406
aS'L'
aS'AH0'
p407
aS'N'
aS'S'
aaa(lp408
(lp409
S'D'
aS'IH1'
p410
aS'S'
aS'K'
aS'AO0'
p411
aS'R'
aS'S'
aaa(lp412
(lp413
S'F'
aS'IH1'
p414
aS'R'
aaa(lp415
(lp416
S'AE1'
p417
aS'NG'
p418
aS'G'
aS'ER0'
p419
aaa(lp420
(lp421
S'AE1'
p422
aS'NG'
p423
aS'G'
aS'W'
aS'IH0'
p424
aS'SH'
p425
aaa(lp426
(lp427
S'HH'
p428
aS'AE1'
p429
aS'P'
aS'IY0'
p430
aS'N'
aS'AH0'
p431
aS'S'
aaa(lp432
(lp433
S'HH'
p434
aS'IY1'
p435
aS'R'
aaa(lp436
(lp437
S'B'
aS'L'
aS'EY1'
p438
aS'M'
aaa(lp439
(lp440
S'SH'
p441
aS'EY1'
p442
aS'M'
aaa(lp443
(lp444
S'EH1'
p445
aS'N'
aS'IY0'
p446
aS'W'
aS'AH2'
p447
aS'N'
aa(lp448
S'EH1'
p449
aS'N'
aS'IY0'
p450
aS'W'
aS'AH0'
p451
aS'N'
aaa(lp452
(lp453
S'N'
aS'EY1'
p454
aS'M'
aaa(lp455
(lp456
S'K'
aS'IH1'
p457
aS'D'
aaa(lp458
(lp459
S'IH0'
p460
aS'N'
aS'AH1'
p461
aS'F'
aa(lp462
S'IY0'
p463
aS'N'
aS'AH1'
p464
aS'F'
aaa(lp465
(lp466
S'D'
aS'IH0'
p467
aS'S'
aS'G'
aS'AY1'
p468
aS'Z'
aaa(lp469
(lp470
S'AO1'
p471
aS'F'
aaa(lp472
(lp473
S'IH1'
p474
aS'R'
aS'Z'
aa(lp475
S'IY1'
p476
aS'R'
aS'Z'
aaa(lp477
(lp478
S'K'
aS'R'
aS'AY1'
p479
aS'IH0'
p480
aS'NG'
p481
aaa(lp482
(lp483
S'N'
aS'IY1'
p484
aS'D'
aS'IH0'
p485
aS'NG'
p486
aaa(lp487
(lp488
S'IH1'
p489
aS'R'
aS'Z'
aa(lp490
S'IY1'
p491
aS'R'
aS'Z'
aaa(lp492
(lp493
S'AW1'
p494
aS'T'
aaa(lp495
(lp496
S'D'
aS'AW1'
p497
aS'T'
aaa(lp498
(lp499
S'IH1'
p500
aS'R'
aS'Z'
aa(lp501
S'IY1'
p502
aS'R'
aS'Z'
aaa(lp503
(lp504
S'P'
aS'EY1'
p505
aS'N'
aaa(lp506
(lp507
S'G'
aS'EY1'
p508
aS'N'
aaa(lp509
(lp510
S'IH1'
p511
aS'R'
aS'Z'
aa(lp512
S'IY1'
p513
aS'R'
aS'Z'
aaa(lp514
(lp515
S'G'
aS'AA1'
p516
aS'D'
aaa(lp517
(lp518
S'N'
aS'AA1'
p519
aS'D'
aaa(lp520
(lp521
S'IH1'
p522
aS'R'
aS'Z'
aa(lp523
S'IY1'
p524
aS'R'
aS'Z'
aaa(lp525
(lp526
S'S'
aS'AY1'
p527
aS'L'
aS'AH0'
p528
aS'N'
aS'S'
aaa(lp529
(lp530
S'V'
aS'AY1'
p531
aS'AH0'
p532
aS'L'
aS'AH0'
p533
aS'N'
aS'S'
aaa(lp534
(lp535
S'S'
aS'M'
aS'AY1'
p536
aS'L'
aaa(lp537
(lp538
S'G'
aS'R'
aS'AE2'
p539
aS'JH'
p540
aS'UW0'
p541
aS'EY1'
p542
aS'SH'
p543
aS'AH0'
p544
aS'N'
aa(lp545
S'G'
aS'R'
aS'AE2'
p546
aS'JH'
p547
aS'AH0'
p548
aS'W'
aS'EY1'
p549
aS'SH'
p550
aS'AH0'
p551
aS'N'
aaa(lp552
(lp553
S'L'
aS'IY1'
p554
aS'S'
aS'AH0'
p555
aaa(lp556
(lp557
S'L'
aS'AY1'
p558
aaa(lp559
(lp560
S'DH'
p561
aS'EH1'
p562
aS'R'
aaa(lp563
(lp564
S'N'
aS'AY1'
p565
aS'T'
aaa(lp566
(lp567
S'AA1'
p568
aS'N'
aa(lp569
S'AO1'
p570
aS'N'
aaa(lp571
(lp572
S'L'
aS'AY1'
p573
aS'IH0'
p574
aS'NG'
p575
aaa(lp576
(lp577
S'K'
aS'AE1'
p578
aS'R'
aS'IY0'
p579
aS'IH0'
p580
aS'NG'
p581
aa(lp582
S'K'
aS'EH1'
p583
aS'R'
aS'IY0'
p584
aS'IH0'
p585
aS'NG'
p586
aaa(lp587
(lp588
S'K'
aS'L'
aS'OW1'
p589
aS'DH'
p590
aS'Z'
aa(lp591
S'K'
aS'L'
aS'OW1'
p592
aS'Z'
aaa(lp593
(lp594
S'R'
aS'UW1'
p595
aS'TH'
p596
aaa(lp597
(lp598
S'F'
aS'R'
aS'UW1'
p599
aS'T'
aaa(lp600
(lp601
S'AA1'
p602
aS'N'
aS'ER0'
p603
aaa(lp604
(lp605
S'K'
aS'AO1'
p606
aS'R'
aS'N'
aS'ER0'
p607
aaa(lp608
(lp609
S'AH0'
p610
aS'N'
aS'AH1'
p611
aS'DH'
p612
aS'ER0'
p613
aaa(lp614
(lp615
S'P'
aS'R'
aS'UW1'
p616
aS'V'
aaa(lp617
(lp618
S'TH'
p619
aS'IY1'
p620
aS'F'
aaa(lp621
(lp622
S'K'
aS'L'
aS'OW1'
p623
aS'S'
aS'ER0'
p624
aa(lp625
S'K'
aS'L'
aS'OW1'
p626
aS'Z'
aS'ER0'
p627
aaa(lp628
(lp629
S'AW1'
p630
aS'ER0'
p631
aa(lp632
S'AW1'
p633
aS'R'
aaa(lp634
(lp635
S'D'
aS'AO1'
p636
aS'T'
aS'ER0'
p637
aaa(lp638
(lp639
S'W'
aS'AY1'
p640
aS'F'
aaa(lp641
(lp642
S'R'
aS'AY1'
p643
aS'D'
aaa(lp644
(lp645
S'K'
aS'R'
aS'AH1'
p646
aS'SH'
p647
aS'IH0'
p648
aS'NG'
p649
aaa(lp650
(lp651
S'IH0'
p652
aS'N'
aS'K'
aS'ER1'
p653
aS'IH0'
p654
aS'NG'
p655
aaa(lp656
(lp657
S'P'
aS'AH0'
p658
aS'TH'
p659
aS'EH1'
p660
aS'T'
aS'IH0'
p661
aS'K'
aaa(lp662
(lp663
S'M'
aS'AE1'
p664
aS'JH'
p665
aS'IH0'
p666
aS'K'
aaa(lp667
(lp668
S'M'
aS'IY1'
p669
aaa(lp670
(lp671
S'N'
aS'OW1'
p672
aaa(lp673
(lp674
S'D'
aS'AO1'
p675
aS'T'
aS'ER0'
p676
aaa(lp677
(lp678
S'T'
aS'R'
aS'UW1'
p679
aS'TH'
p680
aaa(lp681
(lp682
S'S'
aS'L'
aS'IY1'
p683
aS'P'
aaa(lp684
(lp685
S'R'
aS'IH0'
p686
aS'P'
aS'IY1'
p687
aS'T'
aa(lp688
S'R'
aS'IY0'
p689
aS'P'
aS'IY1'
p690
aS'T'
aaa(lp691
(lp692
S'D'
aS'AY1'
p693
aaa(lp694
(lp695
S'B'
aS'AY1'
p696
aaa(lp697
(lp698
S'D'
aS'IH0'
p699
aS'F'
aS'AY1'
p700
aaa(lp701
(lp702
S'T'
aS'AY1'
p703
aS'M'
aaa(lp704
(lp705
S'S'
aS'L'
aS'IY1'
p706
aS'P'
aaa(lp707
(lp708
S'R'
aS'IH0'
p709
aS'P'
aS'IY1'
p710
aS'T'
aa(lp711
S'R'
aS'IY0'
p712
aS'P'
aS'IY1'
p713
aS'T'
aaa(lp714
(lp715
S'F'
aS'AO1'
p716
aS'L'
aS'T'
aaa(lp717
(lp718
S'HH'
p719
aS'AO1'
p720
aS'L'
aS'T'
aaa(lp721
(lp722
S'AH1'
p723
aS'P'
aaaNa(lp724
(lp725
S'S'
aS'AH1'
p726
aS'K'
aaa(lp727
(lp728
S'B'
aS'AH1'
p729
aS'K'
aaa(lp730
(lp731
S'B'
aS'L'
aS'AH1'
p732
aS'F'
aS'S'
aaa(lp733
(lp734
S'IH0'
p735
aS'N'
aS'AH1'
p736
aS'F'
aa(lp737
S'IY0'
p738
aS'N'
aS'AH1'
p739
aS'F'
aaa(lp740
(lp741
S'T'
aS'AH1'
p742
aS'F'
aaa(lp743
(lp744
S'Y'
aS'UW1'
p745
aaa(lp746
(lp747
S'R'
aS'AH1'
p748
aS'F'
aaa(lp749
(lp750
S'S'
aS'T'
aS'AH1'
p751
aS'F'
aaa(lp752
(lp753
S'N'
aS'EH1'
p754
aS'K'
aS'S'
aS'T'
aa(lp755
S'N'
aS'EH1'
p756
aS'K'
aS'S'
aaa(lp757
(lp758
S'R'
aS'IH0'
p759
aS'F'
aS'L'
aS'EH1'
p760
aS'K'
aS'T'
aS'S'
aa(lp761
S'R'
aS'IH0'
p762
aS'F'
aS'L'
aS'EH1'
p763
aS'K'
aS'S'
aaa(lp764
(lp765
S'D'
aS'AO1'
p766
aS'N'
aaa(lp767
(lp768
S'AA1'
p769
aS'N'
aa(lp770
S'AO1'
p771
aS'N'
aaa(lp772
(lp773
S'K'
aS'AE1'
p774
aS'P'
aaa(lp775
(lp776
S'T'
aS'R'
aS'AE1'
p777
aS'P'
aaa(lp778
(lp779
S'D'
aS'R'
aS'IY1'
p780
aS'M'
aS'ER0'
p781
aaa(lp782
(lp783
S'B'
aS'EH1'
p784
aS'T'
aS'ER0'
p785
aaa(lp786
(lp787
S'N'
aS'AO1'
p788
aS'R'
aS'M'
aaa(lp789
(lp790
S'W'
aS'EH1'
p791
aS'DH'
p792
aS'ER0'
p793
aaa(lp794
(lp795
S'S'
aS'K'
aS'IY1'
p796
aS'M'
aaa(lp797
(lp798
S'D'
aS'R'
aS'IY1'
p799
aS'M'
aaa(lp800
(lp801
S'D'
aS'IH0'
p802
aS'V'
aS'AY1'
p803
aS'S'
aS'AH0'
p804
aS'Z'
aa(lp805
S'D'
aS'IH0'
p806
aS'V'
aS'AY1'
p807
aS'S'
aS'IH0'
p808
aS'Z'
aaa(lp809
(lp810
S'HH'
p811
aS'AE1'
p812
aS'V'
aaa(lp813
(lp814
S'AH0'
p815
aS'D'
aS'IH1'
p816
aS'K'
aS'SH'
p817
aS'AH0'
p818
aS'N'
aaa(lp819
(lp820
S'P'
aS'AH1'
p821
aS'B'
aS'L'
aS'IH0'
p822
aS'K'
aaa(lp823
(lp824
S'F'
aS'AE1'
p825
aS'S'
aS'T'
aS'ER0'
p826
aaa(lp827
(lp828
S'DH'
p829
aS'OW1'
p830
aaa(lp831
(lp832
S'AH1'
p833
aS'P'
aaa(lp834
(lp835
S'F'
aS'Y'
aS'UW1'
p836
aS'CH'
p837
aS'ER0'
p838
aaa(lp839
(lp840
S'AO1'
p841
aS'T'
aS'AH0'
p842
aaa(lp843
(lp844
S'G'
aS'AA1'
p845
aS'T'
aS'AH0'
p846
aaa(lp847
(lp848
S'F'
aS'AY1'
p849
aS'N'
aaa(lp850
(lp851
S'T'
aS'AY1'
p852
aS'M'
aaa(lp853
(lp854
S'G'
aS'R'
aS'AA1'
p855
aS'T'
aS'AH0'
p856
aaa(lp857
(lp858
S'P'
aS'AW1'
p859
aS'ER0'
p860
aaa(lp861
(lp862
S'SH'
p863
aS'AW1'
p864
aS'ER0'
p865
aaa(lp866
(lp867
S'D'
aS'IY1'
p868
aS'M'
aS'AH0'
p869
aS'N'
aS'Z'
aaa(lp870
(lp871
S'IH0'
p872
aS'M'
aS'AE1'
p873
aS'JH'
p874
aS'AH0'
p875
aS'N'
aS'Z'
aaa(lp876
(lp877
S'CH'
p878
aS'AY1'
p879
aS'L'
aS'D'
aaa(lp880
(lp881
S'W'
aS'AY1'
p882
aS'L'
aS'D'
aaa(lp883
(lp884
S'S'
aS'T'
aS'AO1'
p885
aS'R'
aS'M'
aaa(lp886
(lp887
S'S'
aS'W'
aS'AO1'
p888
aS'R'
aS'M'
aaa(lp889
(lp890
S'B'
aS'AH1'
p891
aS'G'
aS'Z'
aaa(lp892
(lp893
S'HH'
p894
aS'AH1'
p895
aS'G'
aS'Z'
aaa(lp896
(lp897
S'S'
aS'EH1'
p898
aS'V'
aS'AH0'
p899
aS'N'
aaa(lp900
(lp901
S'HH'
p902
aS'EH1'
p903
aS'V'
aS'AH0'
p904
aS'N'
aaa(lp905
(lp906
S'DH'
p907
aS'EH1'
p908
aS'R'
aaa(lp909
(lp910
S'K'
aS'EH1'
p911
aS'R'
aaa(lp912
(lp913
S'AH0'
p914
aS'N'
aS'F'
aS'EH1'
p915
aS'R'
aa(lp916
S'AH1'
p917
aS'N'
aS'F'
aS'EH1'
p918
aS'R'
aa(lp919
S'AO2'
p920
aS'N'
aS'F'
aS'EH1'
p921
aS'R'
aaa(lp922
(lp923
S'R'
aS'EH1'
p924
aS'R'
aaa(lp925
(lp926
S'HH'
p927
aS'EH1'
p928
aS'R'
aaa(lp929
(lp930
S'K'
aS'AH0'
p931
aS'M'
aS'P'
aS'EH1'
p932
aS'R'
aaa(lp933
(lp934
S'R'
aS'IY1'
p935
aS'Z'
aS'AH0'
p936
aS'N'
aaa(lp937
(lp938
S'EH1'
p939
aS'V'
aS'R'
aS'IY0'
p940
aS'W'
aS'EH2'
p941
aS'R'
aa(lp942
S'EH1'
p943
aS'V'
aS'R'
aS'IY0'
p944
aS'HH'
p945
aS'W'
aS'EH2'
p946
aS'R'
aaa(lp947
(lp948
S'B'
aS'IH0'
p949
aS'HH'
p950
aS'OW1'
p951
aS'L'
aS'D'
aaa(lp952
(lp953
S'W'
aS'UW1'
p954
aS'M'
aaa(lp955
(lp956
S'W'
aS'AO1'
p957
aS'L'
aaa(lp958
(lp959
S'HH'
p960
aS'AY1'
p961
aaa(lp962
(lp963
S'D'
aS'IH0'
p964
aS'N'
aS'AY1'
p965
aaa(lp966
(lp967
S'N'
aS'AW1'
p968
aaa(lp969
(lp970
S'W'
aS'EY1'
p971
aS'N'
aaa(lp972
(lp973
S'W'
aS'AO1'
p974
aS'L'
aaa(lp975
(lp976
S'HH'
p977
aS'AE1'
p978
aS'N'
aS'D'
aaa(lp979
(lp980
S'S'
aS'AY1'
p981
aS'L'
aS'AH0'
p982
aS'N'
aS'S'
aaa(lp983
(lp984
S'M'
aS'EY1'
p985
aS'D'
aS'Z'
aaa(lp986
(lp987
S'W'
aS'AO1'
p988
aS'R'
aaa(lp989
(lp990
S'W'
aS'AO1'
p991
aS'L'
aaa(lp992
(lp993
S'G'
aS'AA1'
p994
aS'D'
aaa(lp995
(lp996
S'L'
aS'AY1'
p997
aS'T'
aaa(lp998
(lp999
S'B'
aS'R'
aS'IY1'
p1000
aS'DH'
p1001
aS'Z'
aaa(lp1002
(lp1003
S'HH'
p1004
aS'AY1'
p1005
aS'D'
aaa(lp1006
(lp1007
S'W'
aS'AO1'
p1008
aS'L'
aaa(lp1009
(lp1010
S'F'
aS'EY1'
p1011
aS'D'
aS'AH0'
p1012
aS'D'
aa(lp1013
S'F'
aS'EY1'
p1014
aS'D'
aS'IH0'
p1015
aS'D'
aaa(lp1016
(lp1017
S'W'
aS'AO1'
p1018
aS'L'
aaa(lp1019
(lp1020
S'IH0'
p1021
aS'N'
aS'HH'
p1022
aS'EH1'
p1023
aS'R'
aS'AH0'
p1024
aS'T'
aS'AH0'
p1025
aS'N'
aS'S'
aaa(lp1026
(lp1027
S'P'
aS'EY1'
p1028
aS'N'
aaa(lp1029
(lp1030
S'HH'
p1031
aS'AE2'
p1032
aS'L'
aS'AH0'
p1033
aS'L'
aS'UW1'
p1034
aS'Y'
aS'AH0'
p1035
aaa(lp1036
(lp1037
S'K'
aS'R'
aS'AW1'
p1038
aS'D'
aaa(lp1039
(lp1040
S'D'
aS'IH0'
p1041
aS'S'
aS'P'
aS'EH1'
p1042
aS'R'
aaa(lp1043
(lp1044
S'B'
aS'EH1'
p1045
aS'D'
aaa(lp1046
(lp1047
S'S'
aS'IH1'
p1048
aS'K'
aaa(lp1049
(lp1050
S'B'
aS'IY1'
p1051
aa(lp1052
S'B'
aS'IY0'
p1053
aaa(lp1054
(lp1055
S'P'
aS'IH1'
p1056
aS'K'
aaa(lp1057
(lp1058
S'S'
aS'P'
aS'R'
aS'AO1'
p1059
aS'L'
aaa(lp1060
(lp1061
S'T'
aS'IY1'
p1062
aS'V'
aS'IY1'
p1063
aa(lp1064
S'T'
aS'EH2'
p1065
aS'L'
aS'AH0'
p1066
aS'V'
aS'IH1'
p1067
aS'ZH'
p1068
aS'AH0'
p1069
aS'N'
aaa(lp1070
(lp1071
S'IH1'
p1072
aS'Z'
aa(lp1073
S'IH0'
p1074
aS'Z'
aaa(lp1075
(lp1076
S'M'
aS'IY1'
p1077
aaa(lp1078
(lp1079
S'K'
aS'OW1'
p1080
aS'L'
aS'D'
aaa(lp1081
(lp1082
S'AH2'
p1083
aS'N'
aS'AH0'
p1084
aS'N'
aS'AW1'
p1085
aS'N'
aS'S'
aS'T'
aaa(lp1086
(lp1087
S'N'
aS'AO1'
p1088
aS'R'
aS'M'
aS'AH0'
p1089
aS'L'
aaa(lp1090
(lp1091
S'R'
aS'IH0'
p1092
aS'N'
aS'AW1'
p1093
aS'N'
aS'S'
aS'T'
aaa(lp1094
(lp1095
S'T'
aS'EH1'
p1096
aS'N'
aS'S'
aaa(lp1097
(lp1098
S'S'
aS'EH1'
p1099
aS'N'
aS'S'
aaa(lp1100
(lp1101
S'K'
aS'R'
aS'AE1'
p1102
aS'B'
aaa(lp1103
(lp1104
S'D'
aS'R'
aS'AE1'
p1105
aS'B'
aaa(lp1106
(lp1107
S'B'
aS'AH1'
p1108
aS'T'
aS'ER0'
p1109
aS'F'
aS'L'
aS'AY2'
p1110
aaa(lp1111
(lp1112
S'S'
aS'K'
aS'AY1'
p1113
aaa(lp1114
(lp1115
S'G'
aS'UW1'
p1116
aS'S'
aaa(lp1117
(lp1118
S'M'
aS'UW1'
p1119
aS'S'
aaa(lp1120
(lp1121
S'D'
aS'R'
aS'IY1'
p1122
aS'M'
aaa(lp1123
(lp1124
S'S'
aS'T'
aS'IY1'
p1125
aS'M'
aaa(lp1126
(lp1127
S'SH'
p1128
aS'AO1'
p1129
aS'R'
aaa(lp1130
(lp1131
S'M'
aS'AO1'
p1132
aS'R'
aaa(lp1133
(lp1134
S'W'
aS'AH1'
p1135
aS'N'
aa(lp1136
S'HH'
p1137
aS'W'
aS'AH1'
p1138
aS'N'
aaa(lp1139
(lp1140
S'D'
aS'AH1'
p1141
aS'N'
aaa(lp1142
(lp1143
S'M'
aS'AW1'
p1144
aS'S'
aaa(lp1145
(lp1146
S'HH'
p1147
aS'AW1'
p1148
aS'S'
aaa(lp1149
(lp1150
S'ER0'
p1151
aS'AW1'
p1152
aS'N'
aS'D'
aa(lp1153
S'ER0'
p1154
aS'AW1'
p1155
aS'N'
aaa(lp1156
(lp1157
S'G'
aS'R'
aS'AW1'
p1158
aS'N'
aS'D'
aaa(lp1159
(lp1160
S'R'
aS'AY1'
p1161
aS'M'
aaa(lp1162
(lp1163
S'T'
aS'AY1'
p1164
aS'M'
aaa(lp1165
(lp1166
S'T'
aS'R'
aS'AY1'
p1167
aS'D'
aaa(lp1168
(lp1169
S'AH0'
p1170
aS'S'
aS'AY1'
p1171
aS'D'
aaa(lp1172
(lp1173
S'M'
aS'AY1'
p1174
aS'N'
aS'D'
aaa(lp1175
(lp1176
S'IH0'
p1177
aS'N'
aS'K'
aS'L'
aS'AY1'
p1178
aS'N'
aS'D'
aaa(lp1179
(lp1180
S'S'
aS'T'
aS'R'
aS'IY1'
p1181
aS'M'
aaa(lp1182
(lp1183
S'TH'
p1184
aS'IY1'
p1185
aS'M'
aaa(lp1186
(lp1187
S'D'
aS'EY1'
p1188
aaa(lp1189
(lp1190
S'M'
aS'EY1'
p1191
aaa(lp1192
(lp1193
S'M'
aS'AH1'
p1194
aS'M'
aS'P'
aS'S'
aaa(lp1195
(lp1196
S'B'
aS'AH1'
p1197
aS'M'
aS'P'
aS'S'
aaa(lp1198
(lp1199
S'S'
aS'AE1'
p1200
aS'T'
aS'ER0'
p1201
aS'D'
aS'IY0'
p1202
aa(lp1203
S'S'
aS'AE1'
p1204
aS'T'
aS'IH2'
p1205
aS'D'
aS'EY2'
p1206
aaa(lp1207
(lp1208
S'P'
aS'L'
aS'EY1'
p1209
aaa(lp1210
(lp1211
S'S'
aS'IY1'
p1212
aaa(lp1213
(lp1214
S'T'
aS'R'
aS'IY1'
p1215
aaatbsS'corpus'
p1216
g7
(g8
(I0
tS'b'
tRp1217
(I1
(L285L
tg11
I00
(lp1218
(lp1219
S'In'
p1220
aS'a'
aS'dreamlike'
p1221
aS'state'
p1222
aa(lp1223
S'A'
aS'moment'
p1224
aS'held'
p1225
aS'in'
p1226
aS'our'
p1227
aS'hands'
p1228
aa(lp1229
S'Emanating'
p1230
aS'love,'
p1231
aa(lp1232
S'Your'
p1233
aS'thumb'
p1234
aS'glides'
p1235
aS'across'
p1236
aS'my'
p1237
aS'skin,'
p1238
aa(lp1239
S'Mine'
p1240
aS'responds'
p1241
aS'in'
p1242
aS'kind,'
p1243
aS"we're"
p1244
aS'real'
p1245
aa(lp1246
S'Love'
p1247
aS'is'
p1248
aS'a'
aS'curious'
p1249
aS'thing.'
p1250
aa(lp1251
S'Who'
p1252
aS'knows'
p1253
aS'when'
p1254
aS'it'
p1255
aS'first'
p1256
aS'came'
p1257
aS'to'
p1258
aS'light?'
p1259
aa(lp1260
S'It\x92s'
p1261
aS'like'
p1262
aS'a'
aS'butterfly'
p1263
aS'that'
p1264
aS'starts'
p1265
aS'its'
p1266
aS'life,'
p1267
aa(lp1268
S'In'
p1269
aS'a'
aS'cocoon'
p1270
aS'hidden'
p1271
aS'out'
p1272
aS'of'
p1273
aS'sight.'
p1274
aa(lp1275
S'As'
p1276
aS'it'
p1277
aS'emerges'
p1278
aS'from'
p1279
aS'its'
p1280
aS'sheltered'
p1281
aS'home,'
p1282
aa(lp1283
S'Its'
p1284
aS'ultimate'
p1285
aS'form'
p1286
aS'still'
p1287
aS'unknown,'
p1288
aa(lp1289
S'Its'
p1290
aS'fuzzy'
p1291
aS'face'
p1292
aS'gives'
p1293
aS'no'
p1294
aS'clue,'
p1295
aa(lp1296
S'As'
p1297
aS'to'
p1298
aS'the'
p1299
aS'majestic'
p1300
aS'beauty'
p1301
aS'it'
p1302
aS'will'
p1303
aS'turn'
p1304
aS'into.'
p1305
aa(lp1306
S'Our'
p1307
aS'love'
p1308
aS'started'
p1309
aS'as'
p1310
aS'an'
p1311
aS'innocent'
p1312
aS'flirtation,'
p1313
aa(lp1314
S'That'
p1315
aS'turned'
p1316
aS'into'
p1317
aS'an'
p1318
aS'infatuation.'
p1319
aa(lp1320
S'Then'
p1321
aS'our'
p1322
aS'love'
p1323
aS'grew,'
p1324
aa(lp1325
S'Far'
p1326
aS'beyond'
p1327
aS'our'
p1328
aS'wildest'
p1329
aS'imagination.'
p1330
aa(lp1331
S'Though'
p1332
aS'the'
p1333
aS'butterfly\x92s'
p1334
aS'time'
p1335
aS'will'
p1336
aS'soon'
p1337
aS'pass'
p1338
aS'by,'
p1339
aa(lp1340
S'Our'
p1341
aS'love'
p1342
aS'will'
p1343
aS'forever'
p1344
aS'fly.'
p1345
aa(lp1346
S'Though'
p1347
aS'a'
aS'butterfly'
p1348
aS'is'
p1349
aS'with'
p1350
aS'us,'
p1351
aa(lp1352
S'For'
p1353
aS'such'
p1354
aS'a'
aS'short'
p1355
aS'time,'
p1356
aa(lp1357
S'It\x92s'
p1358
aS'not'
p1359
aS'longevity,'
p1360
aa(lp1361
S'That'
p1362
aS'captivates'
p1363
aS'one\x92s'
p1364
aS'mind,'
p1365
aa(lp1366
S'Its'
p1367
aS'beauty'
p1368
aS'is'
p1369
aS'uncontested,'
p1370
aa(lp1371
S'Its'
p1372
aS'aerial'
p1373
aS'ballet'
p1374
aS'serene,'
p1375
aa(lp1376
S'So'
p1377
aS'thank'
p1378
aS'you'
p1379
aS'dear'
p1380
aS'butterfly,'
p1381
aa(lp1382
S'For'
p1383
aS'seeding'
p1384
aS'my'
p1385
aS'dream'
p1386
aa(lp1387
S'The'
p1388
aS'sights'
p1389
aS'of'
p1390
aS'the'
p1391
aS'stars'
p1392
aS'and'
p1393
aS'stripes,'
p1394
aa(lp1395
S'Invoke'
p1396
aS'in'
p1397
aS'me'
p1398
aS'a'
aS'sensation'
p1399
aS'of'
p1400
aS'pride,'
p1401
aa(lp1402
S'When'
p1403
aS'I'
aS'hear'
p1404
aS'The'
p1405
aS'Star'
p1406
aS'Spangled'
p1407
aS'Banner,'
p1408
aa(lp1409
S'I\x92m'
p1410
aS'besieged'
p1411
aS'with'
p1412
aS'chills'
p1413
aS'running'
p1414
aS'up'
p1415
aS'and'
p1416
aS'down'
p1417
aS'my'
p1418
aS'spine.'
p1419
aa(lp1420
S'Because'
p1421
aS'they'
p1422
aS'represent'
p1423
aS'the'
p1424
aS'justice'
p1425
aS'and'
p1426
aS'freedom,'
p1427
aa(lp1428
S'All'
p1429
aS'Americans'
p1430
aS'have'
p1431
aS'come'
p1432
aS'to'
p1433
aS'enjoy,'
p1434
aa(lp1435
S'But'
p1436
aS'sadly,'
p1437
aS'sometimes'
p1438
aS'it\x92s'
p1439
aS'at'
p1440
aS'the'
p1441
aS'expense,'
p1442
aa(lp1443
S'Of'
p1444
aS'the'
p1445
aS'lives'
p1446
aS'of'
p1447
aS'someone\x92s'
p1448
aS'little'
p1449
aS'girl'
p1450
aS'or'
p1451
aS'young'
p1452
aS'boy.'
p1453
aa(lp1454
S'These'
p1455
aS'brave'
p1456
aS'Americans'
p1457
aS'chose'
p1458
aS'to'
p1459
aS'serve,'
p1460
aa(lp1461
S'But,'
p1462
aS'unfortunately,'
p1463
aS'not'
p1464
aS'all'
p1465
aS'will'
p1466
aS'survive,'
p1467
aa(lp1468
S'To'
p1469
aS'revel'
p1470
aS'in'
p1471
aS'the'
p1472
aS'accolades'
p1473
aS'they'
p1474
aS'so'
p1475
aS'well'
p1476
aS'deserve.'
p1477
aa(lp1478
S'That\x92s'
p1479
aS'why,'
p1480
aS'on'
p1481
aS'the'
p1482
aS'last'
p1483
aS'day'
p1484
aS'in'
p1485
aS'May,'
p1486
aa(lp1487
S'We'
p1488
aS'celebrate'
p1489
aS'and'
p1490
aS'pray;'
p1491
aa(lp1492
S'Lord,'
p1493
aS'please'
p1494
aS'comfort'
p1495
aS'the'
p1496
aS'souls'
p1497
aS'of'
p1498
aS'our'
p1499
aS'fallen'
p1500
aS'heroes,'
p1501
aa(lp1502
S'And'
p1503
aS'God,'
p1504
aS'bless'
p1505
aS'our'
p1506
aS'beloved'
p1507
aS'U.S.A.'
p1508
aa(lp1509
S'Drifting'
p1510
aS'between'
p1511
aS'love'
p1512
aS'and'
p1513
aS'hate'
p1514
aa(lp1515
S'chained'
p1516
aS'spread-eagled'
p1517
aS'in'
p1518
aS'a'
aS'tug-of-war'
p1519
aa(lp1520
S'of'
p1521
aS'extreme'
p1522
aS'emotions'
p1523
aS'pulling'
p1524
aS'relentlessly;'
p1525
aa(lp1526
S'her'
p1527
aS'body'
p1528
aS'aches'
p1529
aS'...'
p1530
aS'her'
p1531
aS'mind'
p1532
aS'bubbling,'
p1533
aa(lp1534
S'a'
aS'boiling'
p1535
aS'cauldron'
p1536
aS'pleading'
p1537
aS'for'
p1538
aS'release.'
p1539
aa(lp1540
S'In'
p1541
aS'her'
p1542
aS'parched'
p1543
aS'throat'
p1544
aS'a'
aS'stifled'
p1545
aS'scream'
p1546
aa(lp1547
S'soundlessly'
p1548
aS'quivers,'
p1549
aS'then'
p1550
aS'retreats'
p1551
aa(lp1552
S'into'
p1553
aS'the'
p1554
aS'dark'
p1555
aS'chasm'
p1556
aS'deep'
p1557
aS'within'
p1558
aa(lp1559
S'cowering'
p1560
aS'in'
p1561
aS'the'
p1562
aS'chilly'
p1563
aS'dungeon'
p1564
aa(lp1565
S'where'
p1566
aS'her'
p1567
aS'heart'
p1568
aS'lies'
p1569
aS'slowly'
p1570
aS'bleeding.'
p1571
aa(lp1572
S'Torn'
p1573
aS'to'
p1574
aS'shreds'
p1575
aS'her'
p1576
aS'dreams'
p1577
aS'hang'
p1578
aa(lp1579
S'in'
p1580
aS'front'
p1581
aS'of'
p1582
aS'her'
p1583
aS'misty'
p1584
aS'eyes,'
p1585
aS'blurred...'
p1586
aa(lp1587
S'she'
p1588
aS'struggles'
p1589
aS'between'
p1590
aS'the'
p1591
aS'choice'
p1592
aa(lp1593
S'of'
p1594
aS'fire'
p1595
aS'and'
p1596
aS'water,'
p1597
aS'courage'
p1598
aS'and'
p1599
aS'defeat.'
p1600
aa(lp1601
S'A'
aS'key'
p1602
aS'turns...the'
p1603
aS'door'
p1604
aS'slams...footsteps.'
p1605
aa(lp1606
S'His'
p1607
aS'loud'
p1608
aS'voice'
p1609
aS'calls;'
p1610
aS'her'
p1611
aS'body'
p1612
aS'trembles'
p1613
aa(lp1614
S'as'
p1615
aS'yet'
p1616
aS'again'
p1617
aS'she'
p1618
aS'reluctantly'
p1619
aS'succumbs'
p1620
aa(lp1621
S'to'
p1622
aS'overpowering'
p1623
aS'waves'
p1624
aS'of'
p1625
aS'helplessness...'
p1626
aa(lp1627
S'silently'
p1628
aS'she'
p1629
aS'drowns'
p1630
aS'in'
p1631
aS'fearful'
p1632
aS'anticipation'
p1633
aa(lp1634
S'\x93We\x92ve'
p1635
aS'never'
p1636
aS'seen'
p1637
aS'a'
aS'more'
p1638
aS'beautiful'
p1639
aS'sunset,\x94'
p1640
aa(lp1641
S'Is'
p1642
aS'what'
p1643
aS'the'
p1644
aS'locals'
p1645
aS'said.'
p1646
aa(lp1647
S'We'
p1648
aS'were'
p1649
aS'blessed'
p1650
aS'with'
p1651
aS'a'
aS'double'
p1652
aS'rainbow,'
p1653
aa(lp1654
S'And'
p1655
aS'you'
p1656
aS'kissed'
p1657
aS'gorilla'
p1658
aS'rock,'
p1659
aa(lp1660
S'With'
p1661
aS'a'
aS'cone'
p1662
aS'on'
p1663
aS'your'
p1664
aS'head.'
p1665
aa(lp1666
S'Your'
p1667
aS'bride\x92s'
p1668
aS'mates'
p1669
aS'were'
p1670
aS'ornate'
p1671
aS'foul,'
p1672
aa(lp1673
S'And'
p1674
aS'the'
p1675
aS'unflattering'
p1676
aS'picture'
p1677
aS'of'
p1678
aS'a'
aS'floating'
p1679
aS'pregnant'
p1680
aS'woman,'
p1681
aa(lp1682
S'Is'
p1683
aS'etched'
p1684
aS'in'
p1685
aS'my'
p1686
aS'mind'
p1687
aS'even'
p1688
aS'now.'
p1689
aa(lp1690
S'These'
p1691
aS'memories'
p1692
aS'of'
p1693
aS'when'
p1694
aS'our'
p1695
aS'life'
p1696
aS'together'
p1697
aS'began,'
p1698
aa(lp1699
S'Until'
p1700
aS'my'
p1701
aS'days'
p1702
aS'on'
p1703
aS'this'
p1704
aS'earth,'
p1705
aa(lp1706
S'Will'
p1707
aS'never'
p1708
aS'come'
p1709
aS'to'
p1710
aS'an'
p1711
aS'end,'
p1712
aa(lp1713
S'Fire'
p1714
aS'is'
p1715
aS'an'
p1716
aS'element'
p1717
aS'and'
p1718
aS'a'
aS'fear,'
p1719
aa(lp1720
S'But'
p1721
aS'thankfully'
p1722
aS"it's"
p1723
aS'controllable'
p1724
aS'and'
p1725
aS"it's"
p1726
aS'here.'
p1727
aa(lp1728
S'It'
p1729
aS'is'
p1730
aS'a'
aS'miracle'
p1731
aS'and'
p1732
aS'creator,'
p1733
aa(lp1734
S'And'
p1735
aS'a'
aS'destroyer'
p1736
aS'and'
p1737
aS'a'
aS'slayer.'
p1738
aa(lp1739
S'Fire'
p1740
aS'holds'
p1741
aS'so'
p1742
aS'much'
p1743
aS'power,'
p1744
aa(lp1745
S'It'
p1746
aS'can'
p1747
aS'burn'
p1748
aS'to'
p1749
aS'ashes'
p1750
aS'something'
p1751
aS'huge'
p1752
aS'like'
p1753
aS'a'
aS'tower.'
p1754
aa(lp1755
S'But'
p1756
aS'just'
p1757
aS'like'
p1758
aS'everything,'
p1759
aS'it'
p1760
aS'starts'
p1761
aS'out'
p1762
aS'weak,'
p1763
aa(lp1764
S'And'
p1765
aS'there'
p1766
aS'is'
p1767
aS'a'
aS'chance'
p1768
aS'to'
p1769
aS'"kill"'
p1770
aS'it'
p1771
aS'before'
p1772
aS'havoc'
p1773
aS'it'
p1774
aS'does'
p1775
aS'wreak.'
p1776
aa(lp1777
S'But'
p1778
aS'just'
p1779
aS'you'
p1780
aS'remember,'
p1781
aS"don't"
p1782
aS'get'
p1783
aS'to'
p1784
aS'close,'
p1785
aa(lp1786
S'It'
p1787
aS'just'
p1788
aS'might'
p1789
aS'burn'
p1790
aS'something'
p1791
aS'way'
p1792
aS'worse'
p1793
aS'than'
p1794
aS'your'
p1795
aS'nose.'
p1796
aa(lp1797
S'So'
p1798
aS'the'
p1799
aS'day'
p1800
aS'has'
p1801
aS'come'
p1802
aa(lp1803
S'The'
p1804
aS'big'
p1805
aS'two'
p1806
aS'one'
p1807
aa(lp1808
S'But'
p1809
aS'age'
p1810
aS'is'
p1811
aS'not'
p1812
aS'just'
p1813
aS'the'
p1814
aS'number'
p1815
aS'of'
p1816
aS'times'
p1817
aa(lp1818
S'You\x92ve'
p1819
aS'been'
p1820
aS'around'
p1821
aS'the'
p1822
aS'sun'
p1823
aa(lp1824
S'It\x92s'
p1825
aS'a'
aS'measurement'
p1826
aS'wisdom'
p1827
aS'gained'
p1828
aa(lp1829
S'Before'
p1830
aS'it\x92s'
p1831
aS'all'
p1832
aS'said'
p1833
aS'and'
p1834
aS'done'
p1835
aa(lp1836
S'The'
p1837
aS'sound'
p1838
aS'of'
p1839
aS'laughter,'
p1840
aa(lp1841
S'The'
p1842
aS'sound'
p1843
aS'of'
p1844
aS'silence,'
p1845
aa(lp1846
S'The'
p1847
aS'sound'
p1848
aS'of'
p1849
aS'discourse,'
p1850
aa(lp1851
S'The'
p1852
aS'sound'
p1853
aS'of'
p1854
aS'fear,'
p1855
aa(lp1856
S'The'
p1857
aS'sound'
p1858
aS'anger,'
p1859
aa(lp1860
S'The'
p1861
aS'sound'
p1862
aS'of'
p1863
aS'anguish,'
p1864
aa(lp1865
S'And'
p1866
aS'the'
p1867
aS'sound'
p1868
aS'of'
p1869
aS'happiness,'
p1870
aa(lp1871
S'Are'
p1872
aS'all'
p1873
aS'sounds'
p1874
aS'we'
p1875
aS'must'
p1876
aS'hear.'
p1877
aa(lp1878
S'I'
aS'hid'
p1879
aS'my'
p1880
aS'blame,'
p1881
aa(lp1882
S'I'
aS'hid'
p1883
aS'my'
p1884
aS'shame,'
p1885
aa(lp1886
S'Didn\x92t'
p1887
aS'want'
p1888
aS'anyone'
p1889
aa(lp1890
S'To'
p1891
aS'even'
p1892
aS'know'
p1893
aS'my'
p1894
aS'name.'
p1895
aa(lp1896
S'I'
aS'was'
p1897
aS'a'
aS'poor'
p1898
aS'kid,'
p1899
aa(lp1900
S'Never'
p1901
aS'had'
p1902
aS'enough,'
p1903
aa(lp1904
S'So'
p1905
aS'I'
aS'put'
p1906
aS'on'
p1907
aS'a'
aS'disguise'
p1908
aa(lp1909
S'Now'
p1910
aS'I'
aS'can\x92t'
p1911
aS'get'
p1912
aS'it'
p1913
aS'off.'
p1914
aa(lp1915
S'I'
aS'curse'
p1916
aS'my'
p1917
aS'ears,'
p1918
aa(lp1919
S'When'
p1920
aS'hear'
p1921
aS'a'
aS'baby'
p1922
aS'crying,'
p1923
aa(lp1924
S'Crying'
p1925
aS'for'
p1926
aS'food'
p1927
aS'it'
p1928
aS'is'
p1929
aS'so'
p1930
aS'desperately'
p1931
aS'needing,'
p1932
aa(lp1933
S'I'
aS'curse'
p1934
aS'my'
p1935
aS'ears,'
p1936
aa(lp1937
S'When'
p1938
aS'I'
aS'hear'
p1939
aS'injustices'
p1940
aS'ruling'
p1941
aS'out,'
p1942
aa(lp1943
S'Where'
p1944
aS'wrong'
p1945
aS'is'
p1946
aS'assumed'
p1947
aS'to'
p1948
aS'be'
p1949
aS'right'
p1950
aS'without'
p1951
aS'a'
aS'doubt,'
p1952
aa(lp1953
S'I'
aS'curse'
p1954
aS'my'
p1955
aS'ears,'
p1956
aa(lp1957
S'When'
p1958
aS'I'
aS'hear'
p1959
aS'lies'
p1960
aS'causing'
p1961
aS'pain'
p1962
aa(lp1963
S'And'
p1964
aS'justifying'
p1965
aS'the'
p1966
aS'untruth'
p1967
aS'for'
p1968
aS'self-gain,'
p1969
aa(lp1970
S'I'
aS'curse'
p1971
aS'my'
p1972
aS'ears,'
p1973
aa(lp1974
S'When'
p1975
aS'I'
aS'hear'
p1976
aS'let\x92s'
p1977
aS'kill'
p1978
aS'people'
p1979
aS'for'
p1980
aS'God,'
p1981
aa(lp1982
S'While'
p1983
aS'bowing'
p1984
aS'their'
p1985
aS'heads'
p1986
aS'with'
p1987
aS'a'
aS'righteous'
p1988
aS'nod,'
p1989
aa(lp1990
S'I'
aS'curse'
p1991
aS'my'
p1992
aS'ears,'
p1993
aa(lp1994
S'When'
p1995
aS'I'
aS'can\x92t'
p1996
aS'hear'
p1997
aS'the'
p1998
aS'sounds'
p1999
aS'of'
p2000
aS'silence,'
p2001
aa(lp2002
S'Because'
p2003
aS'it\x92s'
p2004
aS'being'
p2005
aS'obscured'
p2006
aS'by'
p2007
aS'the'
p2008
aS'clamor'
p2009
aS'violence.'
p2010
aa(lp2011
S'Can'
p2012
aS'I'
aS'lie'
p2013
aS'to'
p2014
aS'you,'
p2015
aS'can'
p2016
aS'I'
aS'say'
p2017
aS'you'
p2018
aS'wear'
p2019
aS'the'
p2020
aS'most'
p2021
aS'beautiful'
p2022
aS'smile'
p2023
aa(lp2024
S'Like'
p2025
aS'I'
aS'never'
p2026
aS'saw'
p2027
aS'my'
p2028
aS'mama'
p2029
aS'wear'
p2030
aS'a'
aS'priceless'
p2031
aS'version'
p2032
aS'on'
p2033
aS'my'
p2034
aS'graduation'
p2035
aa(lp2036
S'Can'
p2037
aS'I'
aS'tell'
p2038
aS'you'
p2039
aS'your'
p2040
aS'face'
p2041
aS'holds'
p2042
aS'that'
p2043
aS'\x93Eureka\x94'
p2044
aS'like'
p2045
aS'I'
aS'just'
p2046
aS'discovered'
p2047
aS'a'
aS'living'
p2048
aS'Mona'
p2049
aS'Lisa'
p2050
aa(lp2051
S'Just'
p2052
aS'to'
p2053
aS'get'
p2054
aS'your'
p2055
aS'ego'
p2056
aS'high,'
p2057
aS'and'
p2058
aS'make'
p2059
aS'you'
p2060
aS'want'
p2061
aS'to'
p2062
aS'hear'
p2063
aS'another'
p2064
aS'lie'
p2065
aa(lp2066
S'I'
aS'can'
p2067
aS'see'
p2068
aS'that'
p2069
aS'smile,'
p2070
aS'am'
p2071
aS'I'
aS'getting'
p2072
aS'there?'
p2073
aa(lp2074
S'Am'
p2075
aS'I'
aS'close'
p2076
aS'to'
p2077
aS'satisfying'
p2078
aS'your'
p2079
aS'fantasy'
p2080
aS'of'
p2081
aS'a'
aS'possible'
p2082
aS'Mr.'
p2083
aS'Right;'
p2084
aS'the'
p2085
aS'one'
p2086
aS'you'
p2087
aS'dream'
p2088
aS'about'
p2089
aS'every'
p2090
aS'other'
p2091
aS'night.'
p2092
aa(lp2093
S'Hold'
p2094
aS'on,'
p2095
aa(lp2096
S'I'
aS'just'
p2097
aS'want'
p2098
aS'to'
p2099
aS'be'
p2100
aS'your'
p2101
aS'friend'
p2102
aS'right;'
p2103
aS'even'
p2104
aS'though'
p2105
aS'we'
p2106
aS'both'
p2107
aS'know'
p2108
aS'I\x92ll'
p2109
aS'be'
p2110
aS'lying'
p2111
aa(lp2112
S'What'
p2113
aS'I'
aS'want'
p2114
aS'is'
p2115
aS'an'
p2116
aS'addiction'
p2117
aS'which'
p2118
aS'I'
aS'clearly'
p2119
aS'see'
p2120
aS'in'
p2121
aS'that'
p2122
aS'beautiful'
p2123
aS'body'
p2124
aS'that'
p2125
aS'you'
p2126
aS'carrying.'
p2127
aa(lp2128
S'I'
aS'can\x92t'
p2129
aS'take'
p2130
aS'my'
p2131
aS'eyes'
p2132
aS'off'
p2133
aS'you,'
p2134
aS'now'
p2135
aS'that\x92s'
p2136
aS'some'
p2137
aS'truth,'
p2138
aS'but'
p2139
aS'what'
p2140
aS'I'
aS'want'
p2141
aS'to'
p2142
aS'really'
p2143
aS'take'
p2144
aS'off'
p2145
aS'you,'
p2146
aS'is'
p2147
aS'your'
p2148
aS'clothes'
p2149
aa(lp2150
S'Plan'
p2151
aS'is'
p2152
aS'to'
p2153
aS'take'
p2154
aS'your'
p2155
aS'\x91T\x92'
p2156
aS'off'
p2157
aS'just'
p2158
aS'like'
p2159
aS'tRUTH,'
p2160
aS'and'
p2161
aS'make'
p2162
aS'you'
p2163
aS'commit'
p2164
aS'to'
p2165
aS'me'
p2166
aS'just'
p2167
aS'like'
p2168
aS'RUTH'
p2169
aa(lp2170
S'Be'
p2171
aS'your'
p2172
aS'puppet'
p2173
aS'and'
p2174
aS'serve'
p2175
aS'you'
p2176
aS'with'
p2177
aS'those'
p2178
aS'twinkling'
p2179
aS'smiles,'
p2180
aS'then'
p2181
aS'I\x92ll'
p2182
aS'dim'
p2183
aS'it'
p2184
aS'the'
p2185
aS'moment'
p2186
aS'you'
p2187
aS'serve'
p2188
aS'me'
p2189
aS'with'
p2190
aS'your'
p2191
aS'forbidden'
p2192
aS'fruit.'
p2193
aa(lp2194
S'Now'
p2195
aS'I'
aS'can'
p2196
aS'brag'
p2197
aS'to'
p2198
aS'my'
p2199
aS'niggas'
p2200
aS'that'
p2201
aS'I'
aS'had'
p2202
aS'you;'
p2203
aS'easy'
p2204
aS'take,'
p2205
aS'I'
aS'took'
p2206
aS'away'
p2207
aS'your'
p2208
aS'honor'
p2209
aa(lp2210
S'You'
p2211
aS'gave'
p2212
aS'all'
p2213
aS'your'
p2214
aS'heart'
p2215
aS'sweetheart'
p2216
aS'but'
p2217
aS'that\x92s'
p2218
aS'still'
p2219
aS'a'
aS'tight'
p2220
aS'corner'
p2221
aa(lp2222
S'I'
aS'got'
p2223
aS'to'
p2224
aS'make'
p2225
aS'more'
p2226
aS'room;'
p2227
aS'so'
p2228
aS'it\x92s'
p2229
aS'time'
p2230
aS'to'
p2231
aS'find'
p2232
aS'another'
p2233
aa(lp2234
S'Babe'
p2235
aS'see;'
p2236
aS'what'
p2237
aS'a'
aS'man'
p2238
aS'cherish'
p2239
aS'is'
p2240
aS'what'
p2241
aS'he'
p2242
aS'never'
p2243
aS'had;'
p2244
aS'do'
p2245
aS'you'
p2246
aS'need'
p2247
aS'a'
aS'prove?'
p2248
aa(lp2249
S'Check'
p2250
aS'your'
p2251
aS'history;'
p2252
aS'Mona'
p2253
aS'Lisa'
p2254
aS'on'
p2255
aS'display'
p2256
aS'attracted'
p2257
aS'a'
aS'skillful'
p2258
aS'thief'
p2259
aa(lp2260
S'So'
p2261
aS'please'
p2262
aS'believe,'
p2263
aS'the'
p2264
aS'true'
p2265
aS'man'
p2266
aS'for'
p2267
aS'you'
p2268
aS'is'
p2269
aS'not'
p2270
aS'the'
p2271
aS'one'
p2272
aS'you'
p2273
aS'enticed'
p2274
aS'to'
p2275
aS'come'
p2276
aS'closer'
p2277
aa(lp2278
S'But'
p2279
aS'the'
p2280
aS'one'
p2281
aS'you'
p2282
aS'hide'
p2283
aS'but'
p2284
aS'still'
p2285
aS'burn'
p2286
aS'the'
p2287
aS'torch'
p2288
aS'to'
p2289
aS'find'
p2290
aS'you'
p2291
aS'in'
p2292
aS'your'
p2293
aS'saddest'
p2294
aS'hour'
p2295
aa(lp2296
S'The'
p2297
aS'devil\x92s'
p2298
aS'teasing;'
p2299
aS'"you'
p2300
aS'should'
p2301
aS'have'
p2302
aS'listened'
p2303
aS'to'
p2304
aS'daddy'
p2305
aS'prodigal'
p2306
aS'daughter"'
p2307
aa(lp2308
S'There\x92s'
p2309
aS'no'
p2310
aS'turning'
p2311
aS'back,'
p2312
aS'that\x92s'
p2313
aS'why'
p2314
aS'I'
aS'didn\x92t'
p2315
aS'write'
p2316
aS'this'
p2317
aS'for'
p2318
aS'you;'
p2319
aS'you'
p2320
aS'already'
p2321
aS'traded'
p2322
aS'your'
p2323
aS'dignity'
p2324
aS'of'
p2325
aS'a'
aS'perfect'
p2326
aS'wife'
p2327
aa(lp2328
S'For'
p2329
aS'a'
aS'perfect'
p2330
aS'party'
p2331
aS'girl'
p2332
aS'fake'
p2333
aS'niggas'
p2334
aS'applaud;'
p2335
aS'they'
p2336
aS'want'
p2337
aS'a'
aS'ride'
p2338
aa(lp2339
S'Now'
p2340
aS'you'
p2341
aS'worn'
p2342
aS'out,'
p2343
aS'your'
p2344
aS'brake'
p2345
aS'paddles'
p2346
aS'are'
p2347
aS'all'
p2348
aS'out,'
p2349
aS'that\x92s'
p2350
aS'why'
p2351
aS'you'
p2352
aS'crushing'
p2353
aa(lp2354
S'Fake'
p2355
aS'nigga'
p2356
aS'is'
p2357
aS'out'
p2358
aS'there'
p2359
aS'laughing,'
p2360
aS'and'
p2361
aS'no'
p2362
aS'one'
p2363
aS'cares,'
p2364
aS'for'
p2365
aS'only'
p2366
aS'Christ'
p2367
aS'can'
p2368
aS'do'
p2369
aS'that'
p2370
aS'saving'
p2371
aS'without'
p2372
aS'collateral'
p2373
aS'damages'
p2374
aS'incurring'
p2375
aa(lp2376
S'But'
p2377
aS'you'
p2378
aS'not'
p2379
aS'even'
p2380
aS'looking'
p2381
aS'cos'
p2382
aS'your'
p2383
aS'focus'
p2384
aS'is'
p2385
aS'on'
p2386
aS'another'
p2387
aS'man,'
p2388
aS'girl'
p2389
aS'you'
p2390
aS'pathetic'
p2391
aa(lp2392
S'Get'
p2393
aS'your'
p2394
aS'contacts'
p2395
aS'and'
p2396
aS'stay'
p2397
aS'focus,'
p2398
aS'this'
p2399
aS'is'
p2400
aS'no'
p2401
aS'Disney'
p2402
aS'world;'
p2403
aS'this'
p2404
aS'a'
aS'world'
p2405
aS'of'
p2406
aS'snakes'
p2407
aS'and'
p2408
aS'deceptive'
p2409
aS'magic'
p2410
aa(lp2411
S'Now'
p2412
aS'you'
p2413
aS'feeling'
p2414
aS'all'
p2415
aS'uneasy;'
p2416
aS'to'
p2417
aS'yourself'
p2418
aS'you'
p2419
aS'asking,'
p2420
aS'\x91Gosh'
p2421
aS'is'
p2422
aS'he'
p2423
aS'talking'
p2424
aS'about'
p2425
aS'me?\x92'
p2426
aa(lp2427
S'Girl'
p2428
aS'that\x92s'
p2429
aS'a'
aS'definite'
p2430
aS'no!'
p2431
aa(lp2432
S'I\x92m'
p2433
aS'only'
p2434
aS'shaping'
p2435
aS'a'
aS'bullet'
p2436
aS'proof'
p2437
aS'vest'
p2438
aS'to'
p2439
aS'invest'
p2440
aS'nine'
p2441
aS'lives'
p2442
aS'in'
p2443
aS'my'
p2444
aS'unborn'
p2445
aS'daughter;'
p2446
aa(lp2447
S'In'
p2448
aS'case'
p2449
aS'she'
p2450
aS'comes'
p2451
aS'across'
p2452
aS'a'
aS'straight'
p2453
aS'bullet'
p2454
aS'from'
p2455
aS'a'
aS'lying'
p2456
aS'tongue;'
p2457
aS'now'
p2458
aS'that\x92s'
p2459
aS'my'
p2460
aS'selfish'
p2461
aS'truth'
p2462
aa(lp2463
S'Don\x92t'
p2464
aS'sleep,'
p2465
aa(lp2466
S'Keep'
p2467
aS'your'
p2468
aS'thoughts'
p2469
aS'on'
p2470
aS'a'
aS'thousand'
p2471
aS'miles'
p2472
aS'of'
p2473
aS'repeat.'
p2474
aa(lp2475
S'Cry'
p2476
aS'and'
p2477
aS'listen'
p2478
aS'to'
p2479
aS'your'
p2480
aS'heart'
p2481
aS'die,'
p2482
aa(lp2483
S'Sigh'
p2484
aS'as'
p2485
aS'you'
p2486
aS'unintentionally'
p2487
aS'let'
p2488
aS'life'
p2489
aS'pass'
p2490
aS'you'
p2491
aS'by,'
p2492
aa(lp2493
S'You'
p2494
aS'can'
p2495
aS'try'
p2496
aS'to'
p2497
aS'defy,'
p2498
aa(lp2499
S'But'
p2500
aS'it\x92s'
p2501
aS'unmovable,'
p2502
aS'unlike'
p2503
aS'time.'
p2504
aa(lp2505
S'Don\x92t'
p2506
aS'sleep,'
p2507
aa(lp2508
S'Why'
p2509
aS'the'
p2510
aS'fuck'
p2511
aS'are'
p2512
aS'my'
p2513
aS'thoughts'
p2514
aS'stuck'
p2515
aS'on'
p2516
aS'repeat.'
p2517
aa(lp2518
S'It\x92s'
p2519
aS'not'
p2520
aS'my'
p2521
aS'fault,'
p2522
aa(lp2523
S'No'
p2524
aS'matter'
p2525
aS'how'
p2526
aS'hard'
p2527
aS'I'
aS'try'
p2528
aS'I'
aS'can\x92t'
p2529
aS'seem'
p2530
aS'to'
p2531
aS'bring'
p2532
aS'my'
p2533
aS'worries'
p2534
aS'to'
p2535
aS'a'
aS'halt.'
p2536
aa(lp2537
S'Stay'
p2538
aS'up,'
p2539
aa(lp2540
S'Although'
p2541
aS'it\x92s'
p2542
aS'late,'
p2543
aS'she'
p2544
aS'doesn\x92t'
p2545
aS'give'
p2546
aS'a'
aS'f*ck,'
p2547
aa(lp2548
S'Hi'
p2549
aS'my'
p2550
aS'name\x92s'
p2551
aS'Anxiety'
p2552
aS'and'
p2553
aS'I'
aS'can'
p2554
aS'make'
p2555
aS'your'
p2556
aS'life'
p2557
aS'truly'
p2558
aS'suck,'
p2559
aa(lp2560
S'And'
p2561
aS'I\x92m'
p2562
aS'also'
p2563
aS'willing'
p2564
aS'to'
p2565
aS'consume'
p2566
aS'your'
p2567
aS'mind'
p2568
aS'for'
p2569
aS'a'
aS'quick'
p2570
aS'buck,'
p2571
aa(lp2572
S'I'
aS'also'
p2573
aS'won\x92t'
p2574
aS'hesitate'
p2575
aS'to'
p2576
aS'call'
p2577
aS'you'
p2578
aS'on'
p2579
aS'any'
p2580
aS'of'
p2581
aS'your'
p2582
aS'bluffs,'
p2583
aa(lp2584
S'And'
p2585
aS'only'
p2586
aS'I'
aS'can'
p2587
aS'say'
p2588
aS'exactly'
p2589
aS'when'
p2590
aS'it'
p2591
aS'is'
p2592
aS'that'
p2593
aS'you\x92ve'
p2594
aS'had'
p2595
aS'enough,'
p2596
aa(lp2597
S'You\x92re'
p2598
aS'weak'
p2599
aS'and'
p2600
aS'I\x92m'
p2601
aS'tough,'
p2602
aa(lp2603
S'I'
aS'haven\x92t'
p2604
aS'put'
p2605
aS'you'
p2606
aS'through'
p2607
aS'quite'
p2608
aS'enough'
p2609
aS'for'
p2610
aS'you'
p2611
aS'to'
p2612
aS'say'
p2613
aS'that'
p2614
aS'you'
p2615
aa(lp2616
S'have'
p2617
aS'had'
p2618
aS'it'
p2619
aS'rough,'
p2620
aa(lp2621
S'I\x92ve'
p2622
aS'already'
p2623
aS'moved'
p2624
aS'in'
p2625
aS'just'
p2626
aS'tell'
p2627
aS'me'
p2628
aS'where'
p2629
aS'to'
p2630
aS'put'
p2631
aS'my'
p2632
aS'stuff'
p2633
aa(lp2634
S'One'
p2635
aS'day'
p2636
aS'spawns'
p2637
aS'the'
p2638
aS'next,'
p2639
aa(lp2640
S'As'
p2641
aS'on'
p2642
aS'life'
p2643
aS'one'
p2644
aS'reflects.'
p2645
aa(lp2646
S'That'
p2647
aS'dusk'
p2648
aS'begets'
p2649
aS'the'
p2650
aS'dawn,'
p2651
aa(lp2652
S'As'
p2653
aS'life'
p2654
aS'goes'
p2655
aS'on,'
p2656
aa(lp2657
S'You'
p2658
aS'don\x92t'
p2659
aS'need'
p2660
aS'a'
aS'thinking'
p2661
aS'cap,'
p2662
aa(lp2663
S'To'
p2664
aS'avoid'
p2665
aS'this'
p2666
aS'apparent'
p2667
aS'trap'
p2668
aa(lp2669
S'I\x92m'
p2670
aS'guilty'
p2671
aS'of'
p2672
aS'being'
p2673
aS'a'
aS'dreamer.'
p2674
aa(lp2675
S'I'
aS'look'
p2676
aS'at'
p2677
aS'things'
p2678
aS'and'
p2679
aS'ask'
p2680
aS'how'
p2681
aS'they'
p2682
aS'can'
p2683
aS'be'
p2684
aS'better.'
p2685
aa(lp2686
S'If'
p2687
aS'anger'
p2688
aS'and'
p2689
aS'greed'
p2690
aS'where'
p2691
aS'not'
p2692
aS'the'
p2693
aS'norm,'
p2694
aa(lp2695
S'It'
p2696
aS'would'
p2697
aS'be'
p2698
aS'easier'
p2699
aS'to'
p2700
aS'endure'
p2701
aS'this'
p2702
aS'tempestuous'
p2703
aS'weather.'
p2704
aa(lp2705
S'It\x92s'
p2706
aS'true'
p2707
aS'a'
aS'utopian'
p2708
aS'society'
p2709
aS'is'
p2710
aS'only'
p2711
aS'a'
aS'scheme,'
p2712
aa(lp2713
S'So'
p2714
aS'join'
p2715
aS'me'
p2716
aS'in'
p2717
aS'my'
p2718
aS'night'
p2719
aS'and'
p2720
aS'day'
p2721
aS'dream'
p2722
aa(lp2723
S'In'
p2724
aS'most'
p2725
aS'electronic'
p2726
aS'devices'
p2727
aa(lp2728
S'Now'
p2729
aS"it's"
p2730
aS'a'
aS'must'
p2731
aS'have'
p2732
aa(lp2733
S'Total'
p2734
aS'addiction'
p2735
aa(lp2736
S'Every'
p2737
aS'bit'
p2738
aS'of'
p2739
aS'information'
p2740
aS'is'
p2741
aS'public'
p2742
aa(lp2743
S'Research'
p2744
aS'is'
p2745
aS'way'
p2746
aS'faster'
p2747
aa(lp2748
S'No'
p2749
aS'one'
p2750
aS'needs'
p2751
aS'it,'
p2752
aS'though'
p2753
aa(lp2754
S'Easier'
p2755
aS'way'
p2756
aS'to'
p2757
aS'do'
p2758
aS'everything,'
p2759
aS'just'
p2760
aS'look'
p2761
aS'it'
p2762
aS'up'
p2763
aa(lp2764
S'This'
p2765
aS'is'
p2766
aS'the'
p2767
aS'thing'
p2768
aS'of'
p2769
aS'the'
p2770
aS'future'
p2771
aa(lp2772
S'Suffering'
p2773
aS'friends'
p2774
aS'told'
p2775
aS'Robert'
p2776
aS'he'
p2777
aS'oughta'
p2778
aa(lp2779
S'take'
p2780
aS'a'
aS'shower'
p2781
aS'every'
p2782
aS'week--"you'
p2783
aS'gotta."'
p2784
aa(lp2785
S'But'
p2786
aS'he'
p2787
aS'said'
p2788
aS'a'
aS'month'
p2789
aS'was'
p2790
aS'fine'
p2791
aa(lp2792
S'more'
p2793
aS'often'
p2794
aS'would'
p2795
aS'waste'
p2796
aS'his'
p2797
aS'time.'
p2798
aa(lp2799
S'Now'
p2800
aS'Robert'
p2801
aS'is'
p2802
aS'persona'
p2803
aS'non'
p2804
aS'grata'
p2805
aa(lp2806
S'anticipation'
p2807
aS'mounting'
p2808
aS'with'
p2809
aS'alarming'
p2810
aS'power'
p2811
aa(lp2812
S'proving'
p2813
aS'to'
p2814
aS'be'
p2815
aS'an'
p2816
aS'amazing'
p2817
aS'shower'
p2818
aa(lp2819
S'heavens'
p2820
aS'open'
p2821
aS'showing'
p2822
aS'growling'
p2823
aS'demons'
p2824
aa(lp2825
S'boy'
p2826
aS'bravely'
p2827
aS'listens'
p2828
aS'and'
p2829
aS'shakily'
p2830
aS'imagines'
p2831
aa(lp2832
S'mother'
p2833
aS'runs'
p2834
aS'to'
p2835
aS'comfort'
p2836
aS'her'
p2837
aS'coddled'
p2838
aS'child'
p2839
aa(lp2840
S'who'
p2841
aS'never'
p2842
aS'experienced'
p2843
aS'thunder'
p2844
aS'in'
p2845
aS'wild'
p2846
aa(lp2847
S'She'
p2848
aS'begs'
p2849
aS'him'
p2850
aS'to'
p2851
aS'watch'
p2852
aS'the'
p2853
aS'developing'
p2854
aS'storm'
p2855
aa(lp2856
S'as'
p2857
aS'the'
p2858
aS'two'
p2859
aS'sat'
p2860
aS'caught'
p2861
aS'in'
p2862
aS'a'
aS'mini'
p2863
aS'swarm'
p2864
aa(lp2865
S'boy'
p2866
aS'shakily'
p2867
aS'ignores'
p2868
aS'and'
p2869
aS'says'
p2870
aS'scared'
p2871
aS'of'
p2872
aS'booms'
p2873
aS'and'
p2874
aS'buzzing'
p2875
aS'bugs..'
p2876
aa(lp2877
S'so'
p2878
aS'instead'
p2879
aS'they'
p2880
aS'run'
p2881
aS'inside'
p2882
aS'and'
p2883
aS'she'
p2884
aS'surrounds'
p2885
aS'him'
p2886
aS'in'
p2887
aS'hugs'
p2888
aa(lp2889
S'I'
aS'remember'
p2890
aS'him'
p2891
aS'wen'
p2892
aS'I'
aS'was'
p2893
aS'seven'
p2894
aa(lp2895
S'And'
p2896
aS'now'
p2897
aS'he'
p2898
aS'watches'
p2899
aS'me'
p2900
aS'from'
p2901
aS'heaven'
p2902
aa(lp2903
S'Blessing'
p2904
aS'me'
p2905
aS'from'
p2906
aS'up'
p2907
aS'there'
p2908
aa(lp2909
S'Spiritually'
p2910
aS'giving'
p2911
aS'me'
p2912
aS'all'
p2913
aS'the'
p2914
aS'care'
p2915
aa(lp2916
S'I'
aS'miss'
p2917
aS'him'
p2918
aS'when'
p2919
aS'the'
p2920
aS'world'
p2921
aS'becomes'
p2922
aS'unfair'
p2923
aa(lp2924
S'Cause'
p2925
aS'his'
p2926
aS'heart'
p2927
aS'was'
p2928
aS'something'
p2929
aS'that'
p2930
aS'was'
p2931
aS'very'
p2932
aS'rare'
p2933
aa(lp2934
S'I'
aS'miss'
p2935
aS'the'
p2936
aS'way'
p2937
aS'he'
p2938
aS'used'
p2939
aS'to'
p2940
aS'kiss'
p2941
aS'my'
p2942
aS'cheeks'
p2943
aS'and'
p2944
aS'cuddle'
p2945
aS'my'
p2946
aS'hair'
p2947
aa(lp2948
S'My'
p2949
aS'own'
p2950
aS'Dad'
p2951
aS'was'
p2952
aS'beyond'
p2953
aS'any'
p2954
aS'compare'
p2955
aa(lp2956
S'And'
p2957
aS'for'
p2958
aS'that'
p2959
aS'reason'
p2960
aa(lp2961
S'I'
aS'love'
p2962
aS'U'
aS'fathers'
p2963
aS'everywhere'
p2964
aa(lp2965
S'Oh!'
p2966
aS'Do'
p2967
aS'see'
p2968
aS'and'
p2969
aS'behold'
p2970
aa(lp2971
S'Of'
p2972
aS'mother'
p2973
aS'and'
p2974
aS'womb'
p2975
aa(lp2976
S'The'
p2977
aS'writings'
p2978
aS'on'
p2979
aS'the'
p2980
aS'wall'
p2981
aa(lp2982
S'Crouching'
p2983
aS'about'
p2984
aS'the'
p2985
aS'world'
p2986
aS'so'
p2987
aS'high'
p2988
aa(lp2989
S'Their'
p2990
aS'presence'
p2991
aS'you'
p2992
aS"can't"
p2993
aS'deny'
p2994
aa(lp2995
S'Is'
p2996
aS'Your'
p2997
aS'faith'
p2998
aS'draining'
p2999
aS'now?'
p3000
aa(lp3001
S'As'
p3002
aS'doubt'
p3003
aS'begins'
p3004
aS'to'
p3005
aS'wain'
p3006
aa(lp3007
S'The'
p3008
aS'writings'
p3009
aS'on'
p3010
aS'the'
p3011
aS'wall'
p3012
aa(lp3013
S'Lovingly,'
p3014
aS'you'
p3015
aS'carass'
p3016
aS'his'
p3017
aS'hand'
p3018
aa(lp3019
S'And'
p3020
aS'usher'
p3021
aS'him'
p3022
aS'into'
p3023
aS'silence'
p3024
aa(lp3025
S'Many'
p3026
aS'hands,'
p3027
aS'worthless'
p3028
aS'maids'
p3029
aa(lp3030
S'Greater'
p3031
aS'casualties'
p3032
aS'of'
p3033
aS'war'
p3034
aa(lp3035
S'The'
p3036
aS'writings'
p3037
aS'on'
p3038
aS'the'
p3039
aS'wall'
p3040
aa(lp3041
S'Life'
p3042
aS'begins'
p3043
aS'to'
p3044
aS'fade,'
p3045
aS'oh'
p3046
aS'dear'
p3047
aS'child'
p3048
aS'of'
p3049
aS'God'
p3050
aa(lp3051
S'your'
p3052
aS'eyes'
p3053
aS'have'
p3054
aS'lost'
p3055
aS'their'
p3056
aS'light'
p3057
aa(lp3058
S'Angst'
p3059
aS'of'
p3060
aS'shallow'
p3061
aS',lonely'
p3062
aS'breathes'
p3063
aa(lp3064
S'Tears'
p3065
aS'that'
p3066
aS'scar'
p3067
aS'my'
p3068
aS'hide'
p3069
aa(lp3070
S'The'
p3071
aS'writings'
p3072
aS'on'
p3073
aS'the'
p3074
aS'wall'
p3075
aa(lp3076
S'Candle-slacken'
p3077
aS'voice,'
p3078
aS'light'
p3079
aS'has'
p3080
aS'faded'
p3081
aa(lp3082
S'The'
p3083
aS'writings'
p3084
aS'on'
p3085
aS'the'
p3086
aS'wall'
p3087
aa(lp3088
S'Poverty'
p3089
aS'of'
p3090
aS'war,'
p3091
aS'cost'
p3092
aS'was'
p3093
aS'my'
p3094
aS'one'
p3095
aS'inheritance'
p3096
aa(lp3097
S'Searing,'
p3098
aS'blisters'
p3099
aS'of'
p3100
aS'pain'
p3101
aa(lp3102
S'Hallelujah'
p3103
aa(lp3104
S'Emptied-out'
p3105
aS'in'
p3106
aS'a'
aS'crowd'
p3107
aa(lp3108
S'Chanters'
p3109
aS'of'
p3110
aS'my'
p3111
aS'dispair'
p3112
aa(lp3113
S'I\x92m'
p3114
aS'never'
p3115
aS'one'
p3116
aS'to'
p3117
aS'loll'
p3118
aS'in'
p3119
aS'bed'
p3120
aa(lp3121
S'Unless'
p3122
aS'I\x92m'
p3123
aS'feeling'
p3124
aS'sick.'
p3125
aa(lp3126
S'A'
aS'couch'
p3127
aS'or'
p3128
aS'chair'
p3129
aS'would'
p3130
aS'always'
p3131
aS'be'
p3132
aa(lp3133
S'My'
p3134
aS'lounge'
p3135
aS'or'
p3136
aS'reading'
p3137
aS'pick.'
p3138
aa(lp3139
S'At'
p3140
aS'times'
p3141
aS'I\x92ll'
p3142
aS'do'
p3143
aS'a'
aS'sofa'
p3144
aS'sprawl'
p3145
aa(lp3146
S'When'
p3147
aS'glued'
p3148
aS'to'
p3149
aS'the'
p3150
aS'TV'
p3151
aa(lp3152
S'But'
p3153
aS'only'
p3154
aS'when'
p3155
aS'I\x92m'
p3156
aS'ailing'
p3157
aS'is'
p3158
aa(lp3159
S'The'
p3160
aS'bed'
p3161
aS'the'
p3162
aS'place'
p3163
aS'for'
p3164
aS'me.'
p3165
aa(lp3166
S'Of'
p3167
aS'late,'
p3168
aS'a'
aS'virus'
p3169
aS'and'
p3170
aS'a'
aS'cold'
p3171
aa(lp3172
S'Have'
p3173
aS'dropped'
p3174
aS'in'
p3175
aS'unannounced'
p3176
aa(lp3177
S'So'
p3178
aS'here'
p3179
aS'I'
aS'am'
p3180
aS'in'
p3181
aS'bed,'
p3182
aS'my'
p3183
aS'normal'
p3184
aa(lp3185
S'Lounging'
p3186
aS'spots'
p3187
aS'renounced'
p3188
aa(lp3189
S'She'
p3190
aS'was'
p3191
aS'a'
aS'little'
p3192
aS'tense'
p3193
aa(lp3194
S'The'
p3195
aS'notice'
p3196
aS'made'
p3197
aS'no'
p3198
aS'sense'
p3199
aa(lp3200
S'I'
aS'saw'
p3201
aS'a'
aS'little'
p3202
aS'hermit'
p3203
aS'crab'
p3204
aa(lp3205
S'His'
p3206
aS'coloring'
p3207
aS'was'
p3208
aS'oh'
p3209
aS'so'
p3210
aS'drab'
p3211
aa(lp3212
S'It\x92s'
p3213
aS'hard'
p3214
aS'to'
p3215
aS'see'
p3216
aS'the'
p3217
aS'butterfly'
p3218
aa(lp3219
S'Because'
p3220
aS'he'
p3221
aS'flies'
p3222
aS'across'
p3223
aS'the'
p3224
aS'sky'
p3225
aa(lp3226
S'Hear'
p3227
aS'the'
p3228
aS'honking'
p3229
aS'of'
p3230
aS'the'
p3231
aS'goose'
p3232
aa(lp3233
S'I'
aS'think'
p3234
aS'he\x92s'
p3235
aS'angry'
p3236
aS'at'
p3237
aS'the'
p3238
aS'moose'
p3239
aa(lp3240
S'His'
p3241
aS'red'
p3242
aS'sports'
p3243
aS'car'
p3244
aS'is'
p3245
aS'just'
p3246
aS'a'
aS'dream'
p3247
aa(lp3248
S'It'
p3249
aS'needs'
p3250
aS'no'
p3251
aS'gas,'
p3252
aS'it'
p3253
aS'runs'
p3254
aS'on'
p3255
aS'steam'
p3256
aa(lp3257
S'The'
p3258
aS'children'
p3259
aS'like'
p3260
aS'the'
p3261
aS'ocean'
p3262
aS'shore'
p3263
aa(lp3264
S'We'
p3265
aS'want'
p3266
aS'to'
p3267
aS'leave'
p3268
aS'but'
p3269
aS'they'
p3270
aS'want'
p3271
aS'more'
p3272
aa(lp3273
S'I'
aS'made'
p3274
aS'the'
p3275
aS'cookies'
p3276
aS'one'
p3277
aS'by'
p3278
aS'one'
p3279
aa(lp3280
S'I'
aS'hear'
p3281
aS'the'
p3282
aS'bell,'
p3283
aS'so'
p3284
aS'they'
p3285
aS'are'
p3286
aS'done'
p3287
aa(lp3288
S'My'
p3289
aS'cat,'
p3290
aS'she'
p3291
aS'likes'
p3292
aS'to'
p3293
aS'chase'
p3294
aS'a'
aS'mouse,'
p3295
aa(lp3296
S'Especially'
p3297
aS'one'
p3298
aS'that\x92s'
p3299
aS'in'
p3300
aS'the'
p3301
aS'house'
p3302
aa(lp3303
S'Lightening,'
p3304
aS'thunder,'
p3305
aS'all'
p3306
aS'around'
p3307
aa(lp3308
S'Soon'
p3309
aS'the'
p3310
aS'rain'
p3311
aS'falls'
p3312
aS'on'
p3313
aS'the'
p3314
aS'ground'
p3315
aa(lp3316
S'I'
aS'tire'
p3317
aS'of'
p3318
aS'writing'
p3319
aS'poems'
p3320
aS'and'
p3321
aS'rhyme'
p3322
aa(lp3323
S'I'
aS'think'
p3324
aS'I'
aS'need'
p3325
aS'vacation'
p3326
aS'time'
p3327
aa(lp3328
S'Be'
p3329
aS'not'
p3330
aS'the'
p3331
aS'first'
p3332
aS'by'
p3333
aS'whom'
p3334
aS'the'
p3335
aS'new'
p3336
aS'are'
p3337
aS'tried,'
p3338
aa(lp3339
S'Nor'
p3340
aS'yet'
p3341
aS'the'
p3342
aS'last'
p3343
aS'to'
p3344
aS'lay'
p3345
aS'the'
p3346
aS'old'
p3347
aS'aside.'
p3348
aa(lp3349
S'\x92Tis'
p3350
aS'education'
p3351
aS'forms'
p3352
aS'the'
p3353
aS'common'
p3354
aS'mind,'
p3355
aa(lp3356
S'Just'
p3357
aS'as'
p3358
aS'the'
p3359
aS'twig'
p3360
aS'is'
p3361
aS'bent,'
p3362
aS'the'
p3363
aS'tree\x92s'
p3364
aS'inclined.'
p3365
aa(lp3366
S'O'
aS'could'
p3367
aS'I'
aS'flow'
p3368
aS'like'
p3369
aS'thee,'
p3370
aS'and'
p3371
aS'make'
p3372
aS'thy'
p3373
aS'stream'
p3374
aa(lp3375
S'My'
p3376
aS'great'
p3377
aS'example,'
p3378
aS'as'
p3379
aS'it'
p3380
aS'is'
p3381
aS'my'
p3382
aS'theme!'
p3383
aa(lp3384
S'Singing'
p3385
aS'he'
p3386
aS'was,'
p3387
aS'or'
p3388
aS'fluting'
p3389
aS'all'
p3390
aS'the'
p3391
aS'day;'
p3392
aa(lp3393
S'He'
p3394
aS'was'
p3395
aS'as'
p3396
aS'fresh'
p3397
aS'as'
p3398
aS'is'
p3399
aS'the'
p3400
aS'month'
p3401
aS'of'
p3402
aS'May'
p3403
aa(lp3404
S'I'
aS'have'
p3405
aS'the'
p3406
aS'measles'
p3407
aS'and'
p3408
aS'the'
p3409
aS'mumps,'
p3410
aa(lp3411
S'a'
aS'gash,'
p3412
aS'a'
aS'rash'
p3413
aS'and'
p3414
aS'purple'
p3415
aS'bumps'
p3416
aa(lp3417
S'You'
p3418
aS'say'
p3419
aS'today'
p3420
aS'is...Saturday?'
p3421
aa(lp3422
S"G'bye,"
p3423
aS"I'm"
p3424
aS'going'
p3425
aS'out'
p3426
aS'to'
p3427
aS'play!'
p3428
aa(lp3429
S'I'
aS'think'
p3430
aS'that'
p3431
aS'I'
aS'shall'
p3432
aS'never'
p3433
aS'see'
p3434
aa(lp3435
S'A'
aS'poem'
p3436
aS'lovely'
p3437
aS'as'
p3438
aS'a'
aS'tree'
p3439
aatbsS'corpus_tags'
p3440
g7
(g8
(I0
tS'b'
tRp3441
(I1
(L285L
tg11
I00
(lp3442
(lp3443
S'IN'
p3444
aS'DT'
p3445
aS'NN'
p3446
ag3446
aa(lp3447
g3445
ag3446
aS'VBN'
p3448
ag3444
aS'PRP$'
p3449
aS'NNS'
p3450
aa(lp3451
S'VBG'
p3452
ag3446
aa(lp3453
g3449
ag3446
ag3450
ag3444
ag3449
ag3446
aa(lp3454
S'NNP'
p3455
ag3450
ag3444
aS'JJ'
p3456
ag3456
ag3456
aa(lp3457
g3455
aS'VBZ'
p3458
ag3445
ag3456
ag3455
aa(lp3459
S'WP'
p3460
ag3458
aS'WRB'
p3461
aS'PRP'
p3462
aS'RB'
p3463
aS'VBD'
p3464
aS'TO'
p3465
ag3455
aa(lp3466
g3450
ag3444
ag3445
ag3463
aS'WDT'
p3467
ag3458
ag3449
ag3456
aa(lp3468
g3444
ag3445
ag3446
ag3448
aS'RP'
p3469
ag3444
ag3455
aa(lp3470
g3444
ag3462
ag3458
ag3444
ag3449
ag3448
aS'-NONE-'
p3471
aa(lp3472
g3449
ag3456
ag3446
ag3463
ag3456
aa(lp3473
g3449
ag3446
ag3446
ag3458
ag3445
ag3446
aa(lp3474
g3444
ag3465
ag3445
ag3456
ag3446
ag3462
aS'MD'
p3475
aS'VB'
p3476
ag3455
aa(lp3477
g3449
ag3446
ag3464
ag3444
ag3445
ag3446
ag3446
aa(lp3478
g3445
ag3464
ag3444
ag3445
ag3455
aa(lp3479
g3463
ag3449
ag3446
ag3446
aa(lp3480
g3463
ag3444
ag3449
ag3446
ag3455
aa(lp3481
g3444
ag3445
ag3455
ag3446
ag3475
ag3463
ag3476
ag3456
aa(lp3482
g3449
ag3446
ag3475
ag3476
ag3455
aa(lp3483
g3444
ag3445
ag3463
ag3458
ag3444
ag3456
aa(lp3484
g3444
ag3456
ag3445
ag3456
ag3446
aa(lp3485
g3450
ag3463
ag3456
aa(lp3486
g3445
ag3458
ag3456
ag3446
aa(lp3487
g3449
ag3446
ag3458
ag3456
aa(lp3488
g3449
ag3456
ag3446
ag3446
aa(lp3489
g3444
ag3446
ag3462
aS'VBP'
p3490
ag3471
aa(lp3491
g3444
ag3446
ag3449
ag3446
aa(lp3492
g3445
ag3450
ag3444
ag3445
ag3450
aS'CC'
p3493
ag3456
aa(lp3494
g3455
ag3444
ag3462
ag3445
ag3446
ag3444
ag3455
aa(lp3495
g3461
ag3462
ag3490
ag3445
ag3455
ag3455
ag3455
aa(lp3496
g3446
ag3464
ag3444
ag3450
ag3452
ag3469
ag3493
ag3444
ag3449
ag3455
aa(lp3497
g3444
ag3462
ag3490
ag3445
ag3446
ag3493
ag3456
aa(lp3498
g3445
aS'NNPS'
p3499
ag3490
ag3448
ag3465
ag3455
aa(lp3500
g3493
ag3456
ag3450
ag3471
ag3444
ag3445
ag3455
aa(lp3501
g3444
ag3445
ag3450
ag3444
ag3450
ag3463
ag3446
ag3493
ag3456
ag3455
aa(lp3502
g3445
ag3490
ag3499
ag3446
ag3465
ag3455
aa(lp3503
g3446
ag3446
ag3463
ag3445
ag3475
ag3476
aa(lp3504
g3465
ag3446
ag3444
ag3445
ag3450
ag3462
ag3463
ag3463
ag3455
aa(lp3505
g3450
ag3490
ag3444
ag3445
ag3456
ag3446
ag3444
ag3446
aa(lp3506
g3462
ag3490
ag3493
ag3455
aa(lp3507
g3446
ag3446
ag3446
ag3445
ag3450
ag3444
ag3449
ag3446
ag3446
aa(lp3508
g3493
ag3456
ag3446
ag3449
ag3448
ag3455
aa(lp3509
g3452
ag3444
ag3446
ag3493
ag3476
aa(lp3510
g3464
ag3456
ag3444
ag3445
ag3456
aa(lp3511
g3444
ag3446
ag3450
ag3452
ag3446
aa(lp3512
g3449
ag3446
ag3450
aS':'
ag3462
ag3490
ag3471
aa(lp3513
g3445
ag3446
ag3446
ag3452
ag3444
ag3455
aa(lp3514
g3444
ag3449
ag3448
ag3446
ag3445
ag3456
ag3446
aa(lp3515
g3463
ag3456
ag3463
ag3458
aa(lp3516
g3444
ag3445
ag3456
ag3446
ag3446
ag3444
aa(lp3517
g3452
ag3444
ag3445
ag3463
ag3446
aa(lp3518
g3461
ag3449
ag3446
ag3450
ag3463
ag3455
aa(lp3519
g3455
ag3465
ag3450
ag3449
ag3450
ag3490
aa(lp3520
g3444
ag3446
ag3444
ag3449
ag3446
ag3446
ag3455
aa(lp3521
g3462
ag3458
ag3444
ag3445
ag3446
aa(lp3522
g3444
ag3446
ag3493
ag3455
ag3446
ag3493
ag3455
aa(lp3523
g3445
ag3456
ag3456
ag3446
ag3455
aa(lp3524
g3449
ag3446
ag3446
ag3446
ag3449
ag3446
ag3450
aa(lp3525
g3444
ag3463
ag3463
ag3462
ag3463
ag3458
aa(lp3526
g3465
ag3446
ag3450
ag3444
ag3455
aa(lp3527
g3463
ag3462
ag3458
ag3444
ag3456
ag3446
aa(lp3528
g3456
ag3463
ag3448
ag3445
aS'RBR'
p3529
ag3456
ag3446
aa(lp3530
g3458
ag3460
ag3445
ag3450
ag3455
aa(lp3531
g3462
ag3464
ag3448
ag3444
ag3445
ag3456
ag3446
aa(lp3532
g3493
ag3462
ag3464
ag3446
ag3471
aa(lp3533
g3444
ag3445
ag3446
ag3444
ag3449
ag3455
aa(lp3534
g3449
ag3456
ag3450
ag3464
ag3456
ag3446
aa(lp3535
g3493
ag3445
ag3446
ag3446
ag3444
ag3445
ag3446
ag3446
ag3446
aa(lp3536
g3458
ag3448
ag3444
ag3449
ag3446
ag3463
ag3455
aa(lp3537
g3445
ag3450
ag3444
ag3461
ag3449
ag3446
ag3463
ag3456
aa(lp3538
g3444
ag3449
ag3450
ag3444
ag3445
ag3446
aa(lp3539
g3455
ag3463
ag3448
ag3465
ag3445
ag3456
aa(lp3540
g3455
ag3458
ag3445
ag3446
ag3493
ag3445
ag3446
aa(lp3541
g3493
ag3463
ag3458
ag3456
ag3493
ag3456
ag3455
aa(lp3542
g3462
ag3458
ag3445
ag3446
ag3493
ag3455
aa(lp3543
g3493
ag3445
ag3446
ag3493
ag3445
ag3455
aa(lp3544
g3455
ag3450
ag3463
ag3463
ag3471
aa(lp3545
g3462
ag3475
ag3476
ag3465
ag3450
ag3446
ag3456
ag3444
ag3445
ag3455
aa(lp3546
g3493
ag3463
ag3444
ag3456
ag3462
ag3458
ag3469
ag3456
aa(lp3547
g3493
aS'EX'
p3548
ag3458
ag3445
ag3446
ag3465
ag3455
ag3462
ag3444
ag3446
ag3462
ag3458
ag3455
aa(lp3549
g3493
ag3463
ag3462
ag3471
ag3463
ag3476
ag3465
ag3455
aa(lp3550
g3462
ag3463
ag3475
ag3476
ag3446
ag3446
ag3446
ag3444
ag3449
ag3455
aa(lp3551
g3444
ag3445
ag3446
ag3458
ag3448
aa(lp3552
g3445
ag3456
aS'CD'
p3553
ag3553
aa(lp3554
g3493
ag3446
ag3458
ag3463
ag3463
ag3445
ag3446
ag3444
ag3450
aa(lp3555
g3456
ag3448
ag3444
ag3445
ag3446
aa(lp3556
g3450
ag3445
ag3446
ag3446
ag3464
aa(lp3557
g3444
ag3456
ag3445
ag3464
ag3493
ag3446
aa(lp3558
g3445
ag3446
ag3444
ag3455
aa(lp3559
g3445
ag3446
ag3444
ag3455
aa(lp3560
g3445
ag3446
ag3444
ag3455
aa(lp3561
g3445
ag3446
ag3444
ag3455
aa(lp3562
g3445
ag3446
ag3446
aa(lp3563
g3445
ag3446
ag3444
ag3455
aa(lp3564
g3493
ag3445
ag3446
ag3444
ag3455
aa(lp3565
g3455
ag3445
ag3450
ag3462
ag3475
ag3455
aa(lp3566
g3462
ag3464
ag3449
ag3446
aa(lp3567
g3462
ag3464
ag3449
ag3446
aa(lp3568
g3456
ag3446
ag3446
aa(lp3569
g3465
ag3463
ag3476
ag3449
ag3455
aa(lp3570
g3462
ag3464
ag3445
ag3456
ag3446
aa(lp3571
g3463
ag3464
ag3456
aa(lp3572
g3444
ag3462
ag3464
ag3444
ag3445
ag3446
aa(lp3573
g3463
ag3462
ag3490
ag3476
ag3462
ag3455
aa(lp3574
g3462
ag3490
ag3449
ag3446
aa(lp3575
g3461
ag3456
ag3445
ag3446
ag3446
aa(lp3576
g3452
ag3444
ag3446
ag3462
ag3458
ag3463
ag3463
ag3456
aa(lp3577
g3462
ag3490
ag3449
ag3446
aa(lp3578
g3461
ag3462
ag3490
ag3450
ag3452
ag3446
aa(lp3579
g3461
ag3456
ag3458
ag3448
ag3465
ag3476
ag3463
ag3444
ag3445
ag3456
aa(lp3580
g3462
ag3490
ag3449
ag3446
aa(lp3581
g3461
ag3462
ag3490
ag3450
ag3452
ag3446
aa(lp3582
g3493
ag3452
ag3445
ag3446
ag3444
ag3446
aa(lp3583
g3462
ag3490
ag3449
ag3446
aa(lp3584
g3461
ag3462
ag3490
ag3456
ag3446
ag3450
ag3444
ag3456
aa(lp3585
g3444
ag3452
ag3449
ag3450
ag3444
ag3445
ag3456
ag3446
aa(lp3586
g3462
ag3490
ag3449
ag3446
aa(lp3587
g3461
ag3462
ag3490
ag3456
ag3445
ag3450
ag3444
ag3456
aa(lp3588
g3444
ag3456
ag3452
ag3448
ag3444
ag3445
ag3446
ag3455
aa(lp3589
g3455
ag3462
ag3490
ag3465
ag3455
ag3475
ag3462
ag3476
ag3462
ag3476
ag3445
aS'JJS'
p3590
ag3456
ag3446
aa(lp3591
g3444
ag3462
ag3463
ag3464
ag3449
ag3446
ag3446
ag3445
ag3446
ag3446
ag3444
ag3449
ag3446
aa(lp3592
g3455
ag3462
ag3490
ag3462
ag3449
ag3446
ag3450
ag3467
ag3471
ag3490
ag3462
ag3463
ag3448
ag3445
ag3446
ag3455
ag3455
aa(lp3593
g3463
ag3465
ag3476
ag3449
ag3446
ag3446
ag3493
ag3476
ag3462
ag3476
ag3465
ag3476
ag3445
ag3446
aa(lp3594
g3462
ag3475
ag3476
ag3444
ag3471
ag3490
ag3462
ag3452
ag3456
aa(lp3595
g3455
ag3462
ag3490
ag3465
ag3452
ag3449
ag3446
ag3444
ag3445
ag3456
ag3455
ag3455
ag3445
ag3553
ag3462
ag3490
ag3444
ag3445
ag3456
ag3455
aa(lp3596
g3455
ag3455
aa(lp3597
g3462
ag3463
ag3490
ag3465
ag3476
ag3449
ag3446
ag3446
ag3463
ag3444
ag3462
ag3445
ag3490
ag3456
ag3446
ag3452
aa(lp3598
g3460
ag3462
ag3490
ag3458
ag3445
ag3446
ag3467
ag3462
ag3463
ag3476
ag3444
ag3445
ag3456
ag3446
ag3467
ag3462
ag3455
aa(lp3599
g3462
ag3490
ag3476
ag3449
ag3450
ag3444
ag3456
ag3463
ag3456
ag3445
ag3456
ag3493
ag3460
ag3462
ag3490
ag3465
ag3463
ag3476
ag3469
ag3456
ag3458
ag3449
ag3450
aa(lp3600
g3455
ag3458
ag3465
ag3476
ag3449
ag3446
ag3444
ag3463
ag3444
ag3456
ag3493
ag3476
ag3462
ag3476
ag3465
ag3462
ag3463
ag3444
ag3455
aa(lp3601
g3476
ag3449
ag3446
ag3493
ag3476
ag3462
ag3444
ag3445
ag3452
ag3446
ag3463
ag3456
ag3446
ag3462
ag3445
ag3446
ag3462
ag3490
ag3462
ag3444
ag3449
ag3446
ag3455
aa(lp3602
g3463
ag3462
ag3475
ag3476
ag3465
ag3449
ag3446
ag3467
ag3462
ag3464
ag3456
ag3456
ag3446
ag3462
ag3464
ag3463
ag3449
ag3446
aa(lp3603
g3462
ag3464
ag3445
ag3449
ag3446
ag3446
ag3493
ag3455
ag3463
ag3445
ag3456
ag3446
aa(lp3604
g3462
ag3464
ag3465
ag3476
aS'JJR'
p3605
ag3456
ag3463
ag3456
ag3446
ag3465
ag3476
ag3445
aa(lp3606
g3455
ag3455
ag3460
ag3445
ag3446
ag3446
ag3458
ag3460
ag3462
ag3463
ag3471
ag3490
ag3462
ag3490
ag3445
ag3456
aa(lp3607
g3455
ag3449
ag3455
ag3455
ag3455
ag3444
ag3446
ag3448
ag3445
ag3456
ag3446
aa(lp3608
g3444
ag3446
ag3446
ag3445
ag3456
ag3446
ag3444
ag3462
ag3458
ag3463
ag3445
ag3553
ag3462
ag3464
ag3465
ag3476
ag3605
aa(lp3609
g3493
ag3445
ag3553
ag3462
ag3490
ag3493
ag3463
ag3490
ag3445
ag3446
ag3465
ag3476
ag3462
ag3444
ag3449
ag3446
ag3446
aa(lp3610
g3445
ag3456
ag3446
ag3462
ag3475
ag3476
ag3448
ag3465
ag3476
ag3456
ag3446
aa(lp3611
g3450
ag3445
ag3452
ag3446
ag3450
ag3461
ag3462
ag3490
ag3456
ag3445
ag3444
ag3446
ag3462
ag3463
ag3448
ag3449
ag3446
ag3444
ag3445
ag3446
ag3446
aa(lp3612
g3444
ag3445
ag3446
ag3446
ag3446
ag3446
ag3446
ag3446
ag3462
ag3490
ag3445
ag3446
aa(lp3613
g3463
ag3462
ag3490
ag3471
ag3449
ag3446
ag3450
ag3490
ag3445
ag3455
ag3455
ag3461
ag3462
ag3452
aa(lp3614
g3455
ag3446
ag3458
ag3469
ag3463
ag3456
ag3493
ag3445
ag3446
ag3446
ag3444
ag3463
ag3455
ag3475
ag3476
ag3445
ag3452
ag3444
ag3456
ag3450
ag3452
aa(lp3615
g3493
ag3462
ag3463
ag3463
ag3452
ag3450
ag3449
ag3446
ag3458
ag3444
ag3445
ag3446
ag3446
ag3462
ag3456
aa(lp3616
g3446
ag3449
ag3450
ag3493
ag3446
ag3446
ag3445
ag3458
ag3445
ag3455
ag3455
ag3445
ag3445
ag3446
ag3444
ag3450
ag3493
ag3456
ag3446
aa(lp3617
g3463
ag3462
ag3452
ag3445
ag3456
ag3465
ag3462
ag3462
ag3471
ag3456
ag3458
ag3462
ag3452
ag3444
ag3456
aa(lp3618
g3455
ag3455
ag3445
ag3456
ag3446
aa(lp3619
g3446
ag3463
ag3452
ag3445
ag3446
ag3444
ag3590
ag3465
ag3476
ag3553
ag3450
ag3444
ag3449
ag3446
ag3446
aa(lp3620
g3444
ag3446
ag3462
ag3458
ag3444
ag3445
ag3456
ag3446
ag3444
ag3445
ag3446
ag3446
ag3463
ag3458
ag3449
ag3446
ag3446
aa(lp3621
g3456
ag3446
aa(lp3622
g3455
ag3449
ag3450
ag3444
ag3445
ag3446
ag3458
ag3444
ag3455
aa(lp3623
g3455
ag3493
ag3463
ag3465
ag3449
ag3446
ag3446
aa(lp3624
g3455
ag3444
ag3462
ag3463
ag3476
ag3446
ag3446
ag3462
ag3471
aa(lp3625
g3462
ag3475
ag3476
ag3465
ag3476
aa(lp3626
g3493
ag3456
ag3446
ag3444
ag3455
aa(lp3627
g3456
ag3446
aa(lp3628
g3461
ag3445
ag3446
ag3490
ag3449
ag3450
ag3490
ag3444
ag3455
aa(lp3629
g3450
ag3463
ag3449
ag3446
aa(lp3630
g3445
ag3446
ag3461
ag3456
ag3462
ag3490
ag3462
ag3471
ag3490
ag3465
ag3476
ag3449
ag3450
ag3465
ag3445
ag3455
aa(lp3631
g3455
ag3455
aa(lp3632
g3444
ag3456
ag3446
ag3462
ag3456
ag3456
ag3445
ag3456
aa(lp3633
g3455
ag3449
ag3455
ag3455
ag3493
ag3462
ag3475
ag3476
ag3449
ag3446
ag3463
ag3456
aa(lp3634
g3493
ag3456
ag3463
ag3456
ag3465
ag3476
ag3449
ag3446
ag3444
ag3445
ag3456
ag3446
aa(lp3635
g3462
ag3463
ag3456
ag3446
ag3465
ag3476
ag3462
ag3444
ag3445
ag3444
ag3449
ag3446
aa(lp3636
g3493
ag3463
ag3462
ag3475
ag3476
ag3463
ag3461
ag3462
ag3458
ag3444
ag3456
ag3464
ag3456
aa(lp3637
g3456
ag3446
ag3493
ag3456
ag3446
aa(lp3638
g3462
ag3490
ag3448
ag3462
ag3444
ag3463
ag3463
ag3444
ag3462
ag3465
ag3476
ag3444
ag3462
aa(lp3639
g3490
ag3448
ag3462
ag3471
aa(lp3640
g3456
ag3463
ag3448
ag3444
ag3463
ag3446
ag3462
ag3461
ag3465
ag3476
ag3449
ag3446
aa(lp3641
g3553
ag3446
ag3450
ag3445
ag3446
aa(lp3642
g3444
ag3444
ag3446
ag3553
ag3455
aa(lp3643
g3445
ag3446
ag3450
ag3445
ag3446
aa(lp3644
g3444
ag3446
ag3458
ag3456
aa(lp3645
g3462
ag3490
ag3490
ag3445
ag3452
ag3446
aa(lp3646
g3465
ag3464
ag3445
ag3446
ag3446
aa(lp3647
g3446
ag3446
ag3444
ag3452
ag3445
ag3455
aa(lp3648
g3462
ag3490
ag3444
ag3450
ag3493
ag3476
ag3461
ag3462
ag3475
ag3476
ag3455
aa(lp3649
g3444
ag3605
ag3493
ag3446
ag3461
ag3463
ag3445
ag3455
aa(lp3650
g3462
ag3475
ag3476
ag3605
ag3465
ag3476
ag3445
ag3456
ag3455
aa(lp3651
g3450
ag3490
ag3445
ag3456
ag3446
ag3458
ag3463
ag3445
ag3456
aa(lp3652
g3444
ag3446
ag3462
ag3444
ag3449
ag3446
ag3493
ag3446
ag3446
aa(lp3653
g3444
ag3590
ag3456
ag3450
aa(lp3654
g3463
ag3458
ag3445
ag3475
ag3476
aa(lp3655
g3456
ag3446
aa(lp3656
g3445
ag3446
ag3444
ag3446
ag3458
ag3456
aa(lp3657
g3446
ag3458
ag3446
ag3446
aa(lp3658
g3445
ag3446
ag3458
ag3456
ag3444
aa(lp3659
g3605
ag3446
ag3465
ag3476
ag3456
ag3463
ag3490
ag3462
ag3444
aa(lp3660
g3445
ag3458
ag3445
ag3446
ag3444
ag3445
ag3446
aa(lp3661
g3452
ag3450
ag3464
ag3455
ag3462
ag3464
aa(lp3662
g3476
ag3445
ag3446
ag3445
ag3462
ag3471
aa(lp3663
g3493
ag3462
ag3464
ag3445
ag3446
ag3464
ag3446
aa(lp3664
g3605
ag3463
ag3475
ag3476
ag3449
ag3455
aa(lp3665
g3463
ag3455
ag3458
ag3446
ag3446
ag3446
aa(lp3666
g3446
ag3452
ag3444
ag3452
ag3446
aa(lp3667
g3452
ag3465
ag3476
ag3445
ag3446
ag3446
aa(lp3668
g3450
ag3490
ag3452
ag3446
ag3450
aa(lp3669
g3446
ag3463
ag3458
ag3493
ag3463
ag3450
aa(lp3670
g3446
ag3458
ag3465
ag3476
ag3449
ag3448
ag3446
aa(lp3671
g3460
ag3463
ag3464
ag3446
ag3444
ag3446
aa(lp3672
g3462
ag3458
ag3462
ag3465
ag3476
ag3445
ag3452
ag3446
aa(lp3673
g3444
ag3445
ag3553
ag3456
ag3446
ag3444
ag3445
ag3446
ag3446
aa(lp3674
g3446
ag3463
ag3458
ag3493
ag3458
ag3448
ag3444
ag3450
ag3493
ag3452
ag3455
aa(lp3675
g3444
ag3463
ag3462
ag3490
ag3456
ag3493
ag3462
ag3458
ag3462
ag3444
ag3450
aa(lp3676
g3462
ag3490
ag3462
ag3463
ag3462
ag3464
ag3553
aa(lp3677
g3493
ag3463
ag3462
ag3458
ag3462
ag3444
ag3463
aa(lp3678
g3452
ag3462
ag3444
ag3469
ag3548
aa(lp3679
g3463
ag3452
ag3462
ag3445
ag3445
ag3446
aa(lp3680
g3462
ag3490
ag3462
ag3461
ag3445
ag3446
ag3458
ag3456
aa(lp3681
g3455
ag3449
ag3446
ag3464
ag3446
ag3444
ag3464
ag3463
ag3456
aa(lp3682
g3462
ag3490
ag3445
ag3446
ag3462
ag3464
ag3465
ag3450
ag3449
ag3450
ag3493
ag3476
ag3449
ag3446
aa(lp3683
g3449
ag3456
ag3455
ag3464
ag3444
ag3445
ag3446
aa(lp3684
g3493
ag3444
ag3445
ag3446
aa(lp3685
g3462
ag3490
ag3455
ag3450
ag3463
aa(lp3686
g3446
ag3490
ag3476
ag3493
ag3476
aa(lp3687
g3444
ag3446
ag3493
ag3446
aa(lp3688
g3445
ag3450
ag3444
ag3445
ag3446
aa(lp3689
g3452
ag3444
ag3445
ag3446
ag3463
ag3456
aa(lp3690
g3449
ag3446
ag3462
ag3463
ag3456
aa(lp3691
g3458
ag3449
ag3446
ag3452
ag3446
aa(lp3692
g3444
ag3446
ag3450
ag3465
ag3476
aa(lp3693
g3445
ag3450
ag3444
ag3445
ag3446
aa(lp3694
g3446
ag3462
ag3458
ag3449
ag3446
aa(lp3695
g3493
ag3449
ag3462
ag3444
ag3446
aa(lp3696
g3456
ag3446
ag3446
ag3450
aa(lp3697
g3605
ag3450
ag3444
ag3446
aa(lp3698
g3445
ag3450
ag3444
ag3445
ag3446
aa(lp3699
g3455
ag3458
ag3465
ag3455
ag3446
ag3446
ag3446
ag3444
ag3455
aa(lp3700
g3449
ag3450
ag3490
ag3448
ag3449
ag3456
aa(lp3701
g3455
ag3444
ag3456
ag3456
ag3450
aa(lp3702
g3450
ag3444
ag3446
ag3449
ag3446
aa(lp3703
g3445
ag3450
ag3444
ag3445
ag3446
aa(lp3704
g3456
ag3446
ag3446
ag3458
ag3448
aa(lp3705
g3445
ag3450
ag3444
ag3445
ag3446
aa(lp3706
g3455
ag3444
ag3455
ag3446
ag3464
ag3449
ag3553
ag3446
aa(lp3707
g3446
ag3450
ag3444
ag3446
aa(lp3708
g3455
aa(lp3709
g3444
ag3444
ag3445
ag3446
aa(lp3710
g3450
ag3444
ag3449
ag3446
aa(lp3711
g3446
ag3463
ag3553
ag3465
ag3476
ag3444
ag3448
aa(lp3712
g3444
ag3456
ag3446
ag3455
aa(lp3713
g3445
ag3456
ag3493
ag3456
ag3475
ag3463
ag3476
aa(lp3714
g3449
ag3446
ag3493
ag3452
ag3455
aa(lp3715
g3444
ag3450
ag3456
ag3490
ag3445
ag3446
ag3446
aa(lp3716
g3461
ag3448
ag3465
ag3445
ag3446
aa(lp3717
g3493
ag3463
ag3461
ag3456
ag3446
ag3458
aa(lp3718
g3445
ag3448
ag3445
ag3446
ag3444
ag3455
aa(lp3719
g3444
ag3456
ag3445
ag3446
ag3493
ag3445
ag3446
aa(lp3720
g3455
ag3464
ag3444
ag3448
aa(lp3721
g3444
ag3463
ag3462
ag3490
ag3444
ag3455
ag3449
ag3456
aa(lp3722
g3452
ag3450
ag3448
aa(lp3723
g3462
ag3464
ag3445
ag3463
ag3456
aa(lp3724
g3445
ag3446
ag3464
ag3445
ag3446
aa(lp3725
g3462
ag3464
ag3445
ag3463
ag3446
ag3446
aa(lp3726
g3449
ag3446
ag3464
ag3456
ag3463
ag3446
aa(lp3727
g3450
ag3464
ag3465
ag3476
ag3445
ag3446
aa(lp3728
g3444
ag3462
ag3458
ag3444
ag3445
ag3446
aa(lp3729
g3455
ag3445
ag3446
ag3444
ag3445
ag3446
aa(lp3730
g3462
ag3490
ag3456
ag3446
ag3444
ag3445
ag3446
aa(lp3731
g3449
ag3448
ag3450
ag3446
ag3458
ag3463
ag3445
ag3446
aa(lp3732
g3462
ag3458
ag3445
ag3446
ag3462
ag3458
ag3444
ag3446
aa(lp3733
g3445
ag3450
ag3444
ag3445
ag3456
ag3446
aa(lp3734
g3462
ag3490
ag3465
ag3476
ag3493
ag3462
ag3490
ag3529
aa(lp3735
g3462
ag3464
ag3445
ag3450
ag3553
ag3444
ag3553
aa(lp3736
g3462
ag3490
ag3445
ag3455
ag3463
ag3462
ag3490
ag3448
aa(lp3737
g3449
ag3446
ag3462
ag3458
ag3465
ag3476
ag3445
ag3456
aa(lp3738
g3463
ag3553
ag3450
ag3444
ag3445
ag3446
aa(lp3739
g3446
ag3446
ag3445
ag3444
aa(lp3740
g3463
ag3445
ag3446
ag3458
ag3444
ag3445
ag3446
aa(lp3741
g3462
ag3490
ag3444
ag3452
ag3450
ag3493
ag3476
aa(lp3742
g3462
ag3490
ag3462
ag3490
ag3446
ag3446
aa(lp3743
g3476
ag3463
ag3445
ag3456
ag3444
ag3460
ag3445
ag3456
ag3490
ag3456
aa(lp3744
g3455
ag3463
ag3445
ag3456
ag3465
ag3476
ag3445
ag3456
ag3455
aa(lp3745
g3450
ag3490
ag3450
ag3445
ag3456
ag3446
aa(lp3746
g3463
ag3444
ag3445
ag3446
ag3458
ag3456
ag3445
ag3456
ag3455
aa(lp3747
g3455
ag3475
ag3462
ag3476
ag3444
ag3446
ag3493
ag3476
ag3456
ag3446
aa(lp3748
g3449
ag3446
ag3471
ag3444
ag3462
ag3458
ag3449
ag3446
aa(lp3749
g3452
ag3462
ag3471
ag3493
ag3452
ag3445
ag3445
ag3455
aa(lp3750
g3462
ag3464
ag3444
ag3456
ag3444
ag3458
ag3445
ag3446
ag3444
ag3455
aa(lp3751
g3462
ag3490
ag3445
ag3450
ag3493
ag3445
ag3455
aa(lp3752
g3445
ag3446
ag3445
ag3446
ag3493
ag3446
ag3450
aa(lp3753
g3462
ag3490
ag3446
ag3471
aa(lp3754
g3446
ag3446
ag3452
ag3469
ag3465
ag3455
aa(lp3755
g3462
ag3490
ag3444
ag3462
ag3475
ag3463
ag3476
aa(lp3756
g3445
ag3446
ag3463
ag3444
ag3445
ag3446
aatbsb.